ARM GAS  C:\Users\adm\AppData\Local\Temp\ccKmOFLK.s 			page 1


   1              		.syntax unified
   2              		.cpu cortex-m0plus
   3              		.fpu softvfp
   4              		.eabi_attribute 20, 1
   5              		.eabi_attribute 21, 1
   6              		.eabi_attribute 23, 3
   7              		.eabi_attribute 24, 1
   8              		.eabi_attribute 25, 1
   9              		.eabi_attribute 26, 1
  10              		.eabi_attribute 30, 1
  11              		.eabi_attribute 34, 0
  12              		.eabi_attribute 18, 4
  13              		.thumb
  14              		.syntax unified
  15              		.file	"main.c"
  16              		.text
  17              	.Ltext0:
  18              		.cfi_sections	.debug_frame
  19              		.section	.text.TurnOffAllLEDs,"ax",%progbits
  20              		.align	2
  21              		.global	TurnOffAllLEDs
  22              		.code	16
  23              		.thumb_func
  24              		.type	TurnOffAllLEDs, %function
  25              	TurnOffAllLEDs:
  26              	.LFB34:
  27              		.file 1 "main.c"
   1:main.c        **** #include "project.h"
   2:main.c        **** #include <stdio.h>
   3:main.c        **** #include <stdlib.h>
   4:main.c        **** 
   5:main.c        **** #define TIMEOUT_MS 1000
   6:main.c        **** #define IDLE_MS 3000
   7:main.c        **** 
   8:main.c        **** volatile uint8_t resetRequested = 0;
   9:main.c        **** 
  10:main.c        **** uint32_t roundCount = 0;
  11:main.c        **** uint32_t totalReactionTime = 0;
  12:main.c        **** 
  13:main.c        **** void TurnOffAllLEDs() {
  28              		.loc 1 13 0
  29              		.cfi_startproc
  30              		@ args = 0, pretend = 0, frame = 0
  31              		@ frame_needed = 0, uses_anonymous_args = 0
  32 0000 10B5     		push	{r4, lr}
  33              		.cfi_def_cfa_offset 8
  34              		.cfi_offset 4, -8
  35              		.cfi_offset 14, -4
  14:main.c        ****     LED_CapSense_Button_0_Write(1);
  36              		.loc 1 14 0
  37 0002 0120     		movs	r0, #1
  38 0004 FFF7FEFF 		bl	LED_CapSense_Button_0_Write
  39              	.LVL0:
  15:main.c        ****     LED_CapSense_Button_1_Write(1);
  40              		.loc 1 15 0
  41 0008 0120     		movs	r0, #1
  42 000a FFF7FEFF 		bl	LED_CapSense_Button_1_Write
ARM GAS  C:\Users\adm\AppData\Local\Temp\ccKmOFLK.s 			page 2


  43              	.LVL1:
  16:main.c        ****     LED_CapSense_Button_2_Write(1);
  44              		.loc 1 16 0
  45 000e 0120     		movs	r0, #1
  46 0010 FFF7FEFF 		bl	LED_CapSense_Button_2_Write
  47              	.LVL2:
  17:main.c        **** }
  48              		.loc 1 17 0
  49              		@ sp needed
  50 0014 10BD     		pop	{r4, pc}
  51              		.cfi_endproc
  52              	.LFE34:
  53              		.size	TurnOffAllLEDs, .-TurnOffAllLEDs
  54 0016 C046     		.section	.text.BlinkUserLED,"ax",%progbits
  55              		.align	2
  56              		.global	BlinkUserLED
  57              		.code	16
  58              		.thumb_func
  59              		.type	BlinkUserLED, %function
  60              	BlinkUserLED:
  61              	.LFB35:
  18:main.c        **** 
  19:main.c        **** void BlinkUserLED() {
  62              		.loc 1 19 0
  63              		.cfi_startproc
  64              		@ args = 0, pretend = 0, frame = 0
  65              		@ frame_needed = 0, uses_anonymous_args = 0
  66 0000 10B5     		push	{r4, lr}
  67              		.cfi_def_cfa_offset 8
  68              		.cfi_offset 4, -8
  69              		.cfi_offset 14, -4
  20:main.c        ****     LED_User_status_Write(0);
  70              		.loc 1 20 0
  71 0002 0020     		movs	r0, #0
  72 0004 FFF7FEFF 		bl	LED_User_status_Write
  73              	.LVL3:
  21:main.c        ****     CyDelay(200);
  74              		.loc 1 21 0
  75 0008 C820     		movs	r0, #200
  76 000a FFF7FEFF 		bl	CyDelay
  77              	.LVL4:
  22:main.c        ****     LED_User_status_Write(1);
  78              		.loc 1 22 0
  79 000e 0120     		movs	r0, #1
  80 0010 FFF7FEFF 		bl	LED_User_status_Write
  81              	.LVL5:
  23:main.c        **** }
  82              		.loc 1 23 0
  83              		@ sp needed
  84 0014 10BD     		pop	{r4, pc}
  85              		.cfi_endproc
  86              	.LFE35:
  87              		.size	BlinkUserLED, .-BlinkUserLED
  88              		.global	__aeabi_uidiv
  89 0016 C046     		.section	.text.OutputStats,"ax",%progbits
  90              		.align	2
  91              		.global	OutputStats
ARM GAS  C:\Users\adm\AppData\Local\Temp\ccKmOFLK.s 			page 3


  92              		.code	16
  93              		.thumb_func
  94              		.type	OutputStats, %function
  95              	OutputStats:
  96              	.LFB36:
  24:main.c        **** 
  25:main.c        **** void OutputStats() {
  97              		.loc 1 25 0
  98              		.cfi_startproc
  99              		@ args = 0, pretend = 0, frame = 64
 100              		@ frame_needed = 0, uses_anonymous_args = 0
 101 0000 10B5     		push	{r4, lr}
 102              		.cfi_def_cfa_offset 8
 103              		.cfi_offset 4, -8
 104              		.cfi_offset 14, -4
 105 0002 90B0     		sub	sp, sp, #64
 106              		.cfi_def_cfa_offset 72
  26:main.c        ****     char msg[64];
  27:main.c        ****     if (roundCount > 0) {
 107              		.loc 1 27 0
 108 0004 094B     		ldr	r3, .L5
 109 0006 1C68     		ldr	r4, [r3]
 110 0008 002C     		cmp	r4, #0
 111 000a 0CD0     		beq	.L3
  28:main.c        ****         sprintf(msg, "Rounds: %lu, Avg Time: %lu ms\r\n",
 112              		.loc 1 28 0
 113 000c 5868     		ldr	r0, [r3, #4]
  29:main.c        ****             (unsigned long)roundCount,
  30:main.c        ****             (unsigned long)(totalReactionTime / roundCount));
 114              		.loc 1 30 0
 115 000e 2100     		movs	r1, r4
 116 0010 FFF7FEFF 		bl	__aeabi_uidiv
 117              	.LVL6:
 118 0014 0300     		movs	r3, r0
  28:main.c        ****         sprintf(msg, "Rounds: %lu, Avg Time: %lu ms\r\n",
 119              		.loc 1 28 0
 120 0016 2200     		movs	r2, r4
 121 0018 0549     		ldr	r1, .L5+4
 122 001a 6846     		mov	r0, sp
 123 001c FFF7FEFF 		bl	sprintf
 124              	.LVL7:
  31:main.c        ****         UART_UartPutString(msg);
 125              		.loc 1 31 0
 126 0020 6846     		mov	r0, sp
 127 0022 FFF7FEFF 		bl	UART_UartPutString
 128              	.LVL8:
 129              	.L3:
  32:main.c        ****     }
  33:main.c        **** }
 130              		.loc 1 33 0
 131 0026 10B0     		add	sp, sp, #64
 132              		@ sp needed
 133 0028 10BD     		pop	{r4, pc}
 134              	.L6:
 135 002a C046     		.align	2
 136              	.L5:
 137 002c 00000000 		.word	.LANCHOR0
ARM GAS  C:\Users\adm\AppData\Local\Temp\ccKmOFLK.s 			page 4


 138 0030 00000000 		.word	.LC1
 139              		.cfi_endproc
 140              	.LFE36:
 141              		.size	OutputStats, .-OutputStats
 142              		.global	__aeabi_idivmod
 143              		.section	.text.main,"ax",%progbits
 144              		.align	2
 145              		.global	main
 146              		.code	16
 147              		.thumb_func
 148              		.type	main, %function
 149              	main:
 150              	.LFB37:
  34:main.c        **** 
  35:main.c        **** /*
  36:main.c        **** // Optional ISR for reset button
  37:main.c        **** CY_ISR(UserResetISR) {
  38:main.c        ****     if (User_button_pin_Read() == 1) {
  39:main.c        ****         CyDelay(50);
  40:main.c        ****         if (User_button_pin_Read() == 1) {
  41:main.c        ****             while (User_button_pin_Read() == 1);
  42:main.c        ****             CyDelay(50);
  43:main.c        ****             if (roundCount > 0)
  44:main.c        ****                 resetRequested = 1;
  45:main.c        ****         }
  46:main.c        ****     }
  47:main.c        **** }
  48:main.c        **** */
  49:main.c        **** 
  50:main.c        **** int main(void)
  51:main.c        **** {
 151              		.loc 1 51 0
 152              		.cfi_startproc
 153              		@ args = 0, pretend = 0, frame = 72
 154              		@ frame_needed = 0, uses_anonymous_args = 0
 155 0000 F0B5     		push	{r4, r5, r6, r7, lr}
 156              		.cfi_def_cfa_offset 20
 157              		.cfi_offset 4, -20
 158              		.cfi_offset 5, -16
 159              		.cfi_offset 6, -12
 160              		.cfi_offset 7, -8
 161              		.cfi_offset 14, -4
 162 0002 95B0     		sub	sp, sp, #84
 163              		.cfi_def_cfa_offset 104
 164              	.LBB7:
 165              	.LBB8:
 166              		.file 2 "Generated_Source\\PSoC4/cmsis_gcc.h"
   1:Generated_Source\PSoC4/cmsis_gcc.h **** /**************************************************************************//**
   2:Generated_Source\PSoC4/cmsis_gcc.h ****  * @file     cmsis_gcc.h
   3:Generated_Source\PSoC4/cmsis_gcc.h ****  * @brief    CMSIS Cortex-M Core Function/Instruction Header File
   4:Generated_Source\PSoC4/cmsis_gcc.h ****  * @version  V5.00
   5:Generated_Source\PSoC4/cmsis_gcc.h ****  * @date     28. October 2016
   6:Generated_Source\PSoC4/cmsis_gcc.h ****  ******************************************************************************/
   7:Generated_Source\PSoC4/cmsis_gcc.h **** /*
   8:Generated_Source\PSoC4/cmsis_gcc.h ****  * Copyright (c) 2009-2016 ARM Limited. All rights reserved.
   9:Generated_Source\PSoC4/cmsis_gcc.h ****  *
  10:Generated_Source\PSoC4/cmsis_gcc.h ****  * SPDX-License-Identifier: Apache-2.0
ARM GAS  C:\Users\adm\AppData\Local\Temp\ccKmOFLK.s 			page 5


  11:Generated_Source\PSoC4/cmsis_gcc.h ****  *
  12:Generated_Source\PSoC4/cmsis_gcc.h ****  * Licensed under the Apache License, Version 2.0 (the License); you may
  13:Generated_Source\PSoC4/cmsis_gcc.h ****  * not use this file except in compliance with the License.
  14:Generated_Source\PSoC4/cmsis_gcc.h ****  * You may obtain a copy of the License at
  15:Generated_Source\PSoC4/cmsis_gcc.h ****  *
  16:Generated_Source\PSoC4/cmsis_gcc.h ****  * http://www.apache.org/licenses/LICENSE-2.0
  17:Generated_Source\PSoC4/cmsis_gcc.h ****  *
  18:Generated_Source\PSoC4/cmsis_gcc.h ****  * Unless required by applicable law or agreed to in writing, software
  19:Generated_Source\PSoC4/cmsis_gcc.h ****  * distributed under the License is distributed on an AS IS BASIS, WITHOUT
  20:Generated_Source\PSoC4/cmsis_gcc.h ****  * WARRANTIES OR CONDITIONS OF ANY KIND, either express or implied.
  21:Generated_Source\PSoC4/cmsis_gcc.h ****  * See the License for the specific language governing permissions and
  22:Generated_Source\PSoC4/cmsis_gcc.h ****  * limitations under the License.
  23:Generated_Source\PSoC4/cmsis_gcc.h ****  */
  24:Generated_Source\PSoC4/cmsis_gcc.h **** 
  25:Generated_Source\PSoC4/cmsis_gcc.h **** #ifndef __CMSIS_GCC_H
  26:Generated_Source\PSoC4/cmsis_gcc.h **** #define __CMSIS_GCC_H
  27:Generated_Source\PSoC4/cmsis_gcc.h **** 
  28:Generated_Source\PSoC4/cmsis_gcc.h **** /* ignore some GCC warnings */
  29:Generated_Source\PSoC4/cmsis_gcc.h **** #pragma GCC diagnostic push
  30:Generated_Source\PSoC4/cmsis_gcc.h **** #pragma GCC diagnostic ignored "-Wsign-conversion"
  31:Generated_Source\PSoC4/cmsis_gcc.h **** #pragma GCC diagnostic ignored "-Wconversion"
  32:Generated_Source\PSoC4/cmsis_gcc.h **** #pragma GCC diagnostic ignored "-Wunused-parameter"
  33:Generated_Source\PSoC4/cmsis_gcc.h **** 
  34:Generated_Source\PSoC4/cmsis_gcc.h **** /* CMSIS compiler specific defines */
  35:Generated_Source\PSoC4/cmsis_gcc.h **** #ifndef   __ASM
  36:Generated_Source\PSoC4/cmsis_gcc.h ****   #define __ASM                     __asm
  37:Generated_Source\PSoC4/cmsis_gcc.h **** #endif
  38:Generated_Source\PSoC4/cmsis_gcc.h **** #ifndef   __INLINE
  39:Generated_Source\PSoC4/cmsis_gcc.h ****   #define __INLINE                  inline
  40:Generated_Source\PSoC4/cmsis_gcc.h **** #endif
  41:Generated_Source\PSoC4/cmsis_gcc.h **** #ifndef   __STATIC_INLINE
  42:Generated_Source\PSoC4/cmsis_gcc.h ****   #define __STATIC_INLINE           static inline
  43:Generated_Source\PSoC4/cmsis_gcc.h **** #endif
  44:Generated_Source\PSoC4/cmsis_gcc.h **** #ifndef   __NO_RETURN
  45:Generated_Source\PSoC4/cmsis_gcc.h ****   #define __NO_RETURN               __attribute__((noreturn))
  46:Generated_Source\PSoC4/cmsis_gcc.h **** #endif
  47:Generated_Source\PSoC4/cmsis_gcc.h **** #ifndef   __USED
  48:Generated_Source\PSoC4/cmsis_gcc.h ****   #define __USED                    __attribute__((used))
  49:Generated_Source\PSoC4/cmsis_gcc.h **** #endif
  50:Generated_Source\PSoC4/cmsis_gcc.h **** #ifndef   _WEAK
  51:Generated_Source\PSoC4/cmsis_gcc.h ****   #define __WEAK                    __attribute__((weak))
  52:Generated_Source\PSoC4/cmsis_gcc.h **** #endif
  53:Generated_Source\PSoC4/cmsis_gcc.h **** #ifndef   __UNALIGNED_UINT32
  54:Generated_Source\PSoC4/cmsis_gcc.h ****   struct __attribute__((packed)) T_UINT32 { uint32_t v; };
  55:Generated_Source\PSoC4/cmsis_gcc.h ****   #define __UNALIGNED_UINT32(x)     (((struct T_UINT32 *)(x))->v)
  56:Generated_Source\PSoC4/cmsis_gcc.h **** #endif
  57:Generated_Source\PSoC4/cmsis_gcc.h **** #ifndef   __ALIGNED
  58:Generated_Source\PSoC4/cmsis_gcc.h ****   #define __ALIGNED(x)              __attribute__((aligned(x)))
  59:Generated_Source\PSoC4/cmsis_gcc.h **** #endif
  60:Generated_Source\PSoC4/cmsis_gcc.h **** #ifndef   __PACKED
  61:Generated_Source\PSoC4/cmsis_gcc.h ****   #define __PACKED                  __attribute__((packed, aligned(1)))
  62:Generated_Source\PSoC4/cmsis_gcc.h **** #endif
  63:Generated_Source\PSoC4/cmsis_gcc.h **** 
  64:Generated_Source\PSoC4/cmsis_gcc.h **** 
  65:Generated_Source\PSoC4/cmsis_gcc.h **** /* ###########################  Core Function Access  ########################### */
  66:Generated_Source\PSoC4/cmsis_gcc.h **** /** \ingroup  CMSIS_Core_FunctionInterface
  67:Generated_Source\PSoC4/cmsis_gcc.h ****     \defgroup CMSIS_Core_RegAccFunctions CMSIS Core Register Access Functions
ARM GAS  C:\Users\adm\AppData\Local\Temp\ccKmOFLK.s 			page 6


  68:Generated_Source\PSoC4/cmsis_gcc.h ****   @{
  69:Generated_Source\PSoC4/cmsis_gcc.h ****  */
  70:Generated_Source\PSoC4/cmsis_gcc.h **** 
  71:Generated_Source\PSoC4/cmsis_gcc.h **** /**
  72:Generated_Source\PSoC4/cmsis_gcc.h ****   \brief   Enable IRQ Interrupts
  73:Generated_Source\PSoC4/cmsis_gcc.h ****   \details Enables IRQ interrupts by clearing the I-bit in the CPSR.
  74:Generated_Source\PSoC4/cmsis_gcc.h ****            Can only be executed in Privileged modes.
  75:Generated_Source\PSoC4/cmsis_gcc.h ****  */
  76:Generated_Source\PSoC4/cmsis_gcc.h **** __attribute__((always_inline)) __STATIC_INLINE void __enable_irq(void)
  77:Generated_Source\PSoC4/cmsis_gcc.h **** {
  78:Generated_Source\PSoC4/cmsis_gcc.h ****   __ASM volatile ("cpsie i" : : : "memory");
 167              		.loc 2 78 0
 168              		.syntax divided
 169              	@ 78 "Generated_Source\PSoC4/cmsis_gcc.h" 1
 170 0004 62B6     		cpsie i
 171              	@ 0 "" 2
 172              		.thumb
 173              		.syntax unified
 174              	.LBE8:
 175              	.LBE7:
  52:main.c        ****     __enable_irq();
  53:main.c        **** 
  54:main.c        ****     UART_Init();
 176              		.loc 1 54 0
 177 0006 FFF7FEFF 		bl	UART_Init
 178              	.LVL9:
  55:main.c        ****     UART_Start();
 179              		.loc 1 55 0
 180 000a FFF7FEFF 		bl	UART_Start
 181              	.LVL10:
  56:main.c        ****     CapSense_Start();
 182              		.loc 1 56 0
 183 000e FFF7FEFF 		bl	CapSense_Start
 184              	.LVL11:
  57:main.c        ****     CapSense_ScanAllWidgets();
 185              		.loc 1 57 0
 186 0012 FFF7FEFF 		bl	CapSense_ScanAllWidgets
 187              	.LVL12:
  58:main.c        ****     
  59:main.c        ****     srand(CySysTickGetValue());
 188              		.loc 1 59 0
 189 0016 FFF7FEFF 		bl	CySysTickGetValue
 190              	.LVL13:
 191 001a FFF7FEFF 		bl	srand
 192              	.LVL14:
  60:main.c        **** 
  61:main.c        ****     LED_User_status_Write(1);
 193              		.loc 1 61 0
 194 001e 0120     		movs	r0, #1
 195 0020 FFF7FEFF 		bl	LED_User_status_Write
 196              	.LVL15:
  62:main.c        ****     UART_UartPutString("Game Ready. Press User Button (SW2) to Start.\r\n");
 197              		.loc 1 62 0
 198 0024 8748     		ldr	r0, .L41
 199 0026 FFF7FEFF 		bl	UART_UartPutString
 200              	.LVL16:
 201              	.L8:
ARM GAS  C:\Users\adm\AppData\Local\Temp\ccKmOFLK.s 			page 7


  63:main.c        **** 
  64:main.c        ****     // isr_UserReset_StartEx(UserResetISR); // Optional: Enable ISR
  65:main.c        **** 
  66:main.c        ****     for (;;)
  67:main.c        ****     {
  68:main.c        ****         // Wait for user to press the start button with debounce
  69:main.c        ****         if (User_button_pin_Read() == 0)
 202              		.loc 1 69 0
 203 002a FFF7FEFF 		bl	User_button_pin_Read
 204              	.LVL17:
 205 002e 0028     		cmp	r0, #0
 206 0030 FBD1     		bne	.L8
  70:main.c        ****         {
  71:main.c        ****             CyDelay(50);
 207              		.loc 1 71 0
 208 0032 3230     		adds	r0, r0, #50
 209 0034 FFF7FEFF 		bl	CyDelay
 210              	.LVL18:
  72:main.c        ****             if (User_button_pin_Read() == 0)
 211              		.loc 1 72 0
 212 0038 FFF7FEFF 		bl	User_button_pin_Read
 213              	.LVL19:
 214 003c 0028     		cmp	r0, #0
 215 003e F4D1     		bne	.L8
 216              	.L10:
  73:main.c        ****             {
  74:main.c        ****                 while (User_button_pin_Read() == 0); // Wait for release
 217              		.loc 1 74 0 discriminator 1
 218 0040 FFF7FEFF 		bl	User_button_pin_Read
 219              	.LVL20:
 220 0044 0028     		cmp	r0, #0
 221 0046 FBD0     		beq	.L10
  75:main.c        ****                 CyDelay(50);
 222              		.loc 1 75 0
 223 0048 3220     		movs	r0, #50
 224 004a FFF7FEFF 		bl	CyDelay
 225              	.LVL21:
  76:main.c        **** 
  77:main.c        ****                 // Reset game state
  78:main.c        ****                 UART_UartPutString("Game Started\n");
 226              		.loc 1 78 0
 227 004e 7E48     		ldr	r0, .L41+4
 228 0050 FFF7FEFF 		bl	UART_UartPutString
 229              	.LVL22:
  79:main.c        ****                 LED_User_status_Write(1);
 230              		.loc 1 79 0
 231 0054 0120     		movs	r0, #1
 232 0056 FFF7FEFF 		bl	LED_User_status_Write
 233              	.LVL23:
  80:main.c        ****                 roundCount = 0;
 234              		.loc 1 80 0
 235 005a 7C4B     		ldr	r3, .L41+8
 236 005c 0022     		movs	r2, #0
 237 005e 1A60     		str	r2, [r3]
  81:main.c        ****                 totalReactionTime = 0;
 238              		.loc 1 81 0
 239 0060 5A60     		str	r2, [r3, #4]
ARM GAS  C:\Users\adm\AppData\Local\Temp\ccKmOFLK.s 			page 8


  82:main.c        ****                 resetRequested = 0;
 240              		.loc 1 82 0
 241 0062 1A72     		strb	r2, [r3, #8]
 242              	.L11:
 243              	.LBB9:
  83:main.c        **** 
  84:main.c        ****                 while (1) // Game round loop
  85:main.c        ****                 {
  86:main.c        ****                     if (resetRequested) {
 244              		.loc 1 86 0
 245 0064 794B     		ldr	r3, .L41+8
 246 0066 1B7A     		ldrb	r3, [r3, #8]
 247 0068 002B     		cmp	r3, #0
 248 006a 06D0     		beq	.L12
  87:main.c        ****                         UART_UartPutString("Game Restarted by Reset Button\r\n");
 249              		.loc 1 87 0
 250 006c 7848     		ldr	r0, .L41+12
 251 006e FFF7FEFF 		bl	UART_UartPutString
 252              	.LVL24:
  88:main.c        ****                         resetRequested = 0;
 253              		.loc 1 88 0
 254 0072 0022     		movs	r2, #0
 255 0074 754B     		ldr	r3, .L41+8
 256 0076 1A72     		strb	r2, [r3, #8]
  89:main.c        ****                         break;
 257              		.loc 1 89 0
 258 0078 D7E7     		b	.L8
 259              	.L12:
  90:main.c        ****                     }
  91:main.c        **** 
  92:main.c        ****                     CapSense_ProcessAllWidgets();
 260              		.loc 1 92 0
 261 007a FFF7FEFF 		bl	CapSense_ProcessAllWidgets
 262              	.LVL25:
  93:main.c        ****                     CapSense_ScanAllWidgets();
 263              		.loc 1 93 0
 264 007e FFF7FEFF 		bl	CapSense_ScanAllWidgets
 265              	.LVL26:
 266              	.L14:
  94:main.c        ****                     while (CapSense_IsBusy());
 267              		.loc 1 94 0 discriminator 1
 268 0082 FFF7FEFF 		bl	CapSense_IsBusy
 269              	.LVL27:
 270 0086 0028     		cmp	r0, #0
 271 0088 FBD1     		bne	.L14
  95:main.c        **** 
  96:main.c        ****                     TurnOffAllLEDs();
 272              		.loc 1 96 0
 273 008a FFF7FEFF 		bl	TurnOffAllLEDs
 274              	.LVL28:
  97:main.c        **** 
  98:main.c        ****                     // Wait for all buttons to be released
  99:main.c        ****                     uint32_t releaseTimeout = 2000;
 100:main.c        ****                     uint32_t releaseStart = CySysTickGetValue();
 275              		.loc 1 100 0
 276 008e FFF7FEFF 		bl	CySysTickGetValue
 277              	.LVL29:
ARM GAS  C:\Users\adm\AppData\Local\Temp\ccKmOFLK.s 			page 9


 278 0092 0400     		movs	r4, r0
 279              	.LVL30:
 101:main.c        ****                     uint8_t allReleased = 0;
 102:main.c        **** 
 103:main.c        ****                     while ((CySysTickGetValue() - releaseStart) < releaseTimeout * 1000) {
 280              		.loc 1 103 0
 281 0094 15E0     		b	.L15
 282              	.LVL31:
 283              	.L18:
 104:main.c        ****                         CapSense_ProcessAllWidgets();
 284              		.loc 1 104 0
 285 0096 FFF7FEFF 		bl	CapSense_ProcessAllWidgets
 286              	.LVL32:
 105:main.c        ****                         if (!CapSense_IsWidgetActive(CapSense_BUTTON0_WDGT_ID) &&
 287              		.loc 1 105 0
 288 009a 0020     		movs	r0, #0
 289 009c FFF7FEFF 		bl	CapSense_IsWidgetActive
 290              	.LVL33:
 291 00a0 0028     		cmp	r0, #0
 292 00a2 09D1     		bne	.L16
 106:main.c        ****                             !CapSense_IsWidgetActive(CapSense_BUTTON1_WDGT_ID) &&
 293              		.loc 1 106 0 discriminator 1
 294 00a4 0130     		adds	r0, r0, #1
 295 00a6 FFF7FEFF 		bl	CapSense_IsWidgetActive
 296              	.LVL34:
 105:main.c        ****                         if (!CapSense_IsWidgetActive(CapSense_BUTTON0_WDGT_ID) &&
 297              		.loc 1 105 0 discriminator 1
 298 00aa 0028     		cmp	r0, #0
 299 00ac 04D1     		bne	.L16
 107:main.c        ****                             !CapSense_IsWidgetActive(CapSense_BUTTON2_WDGT_ID)) {
 300              		.loc 1 107 0
 301 00ae 0230     		adds	r0, r0, #2
 302 00b0 FFF7FEFF 		bl	CapSense_IsWidgetActive
 303              	.LVL35:
 106:main.c        ****                             !CapSense_IsWidgetActive(CapSense_BUTTON1_WDGT_ID) &&
 304              		.loc 1 106 0
 305 00b4 0028     		cmp	r0, #0
 306 00b6 0CD0     		beq	.L36
 307              	.L16:
 108:main.c        ****                             allReleased = 1;
 109:main.c        ****                             break;
 110:main.c        ****                         }
 111:main.c        ****                         CapSense_ScanAllWidgets();
 308              		.loc 1 111 0
 309 00b8 FFF7FEFF 		bl	CapSense_ScanAllWidgets
 310              	.LVL36:
 112:main.c        ****                         CyDelay(10);
 311              		.loc 1 112 0
 312 00bc 0A20     		movs	r0, #10
 313 00be FFF7FEFF 		bl	CyDelay
 314              	.LVL37:
 315              	.L15:
 103:main.c        ****                         CapSense_ProcessAllWidgets();
 316              		.loc 1 103 0
 317 00c2 FFF7FEFF 		bl	CySysTickGetValue
 318              	.LVL38:
 319 00c6 001B     		subs	r0, r0, r4
ARM GAS  C:\Users\adm\AppData\Local\Temp\ccKmOFLK.s 			page 10


 320 00c8 624B     		ldr	r3, .L41+16
 321 00ca 9842     		cmp	r0, r3
 322 00cc E3D9     		bls	.L18
 101:main.c        **** 
 323              		.loc 1 101 0
 324 00ce 0023     		movs	r3, #0
 325 00d0 00E0     		b	.L17
 326              	.L36:
 108:main.c        ****                             break;
 327              		.loc 1 108 0
 328 00d2 0123     		movs	r3, #1
 329              	.L17:
 330              	.LVL39:
 113:main.c        ****                     }
 114:main.c        **** 
 115:main.c        ****                     if (!allReleased) {
 331              		.loc 1 115 0
 332 00d4 002B     		cmp	r3, #0
 333 00d6 05D1     		bne	.L19
 116:main.c        ****                         UART_UartPutString("Buttons held too long, skipping round...\r\n");
 334              		.loc 1 116 0
 335 00d8 5F48     		ldr	r0, .L41+20
 336 00da FFF7FEFF 		bl	UART_UartPutString
 337              	.LVL40:
 117:main.c        ****                         BlinkUserLED();
 338              		.loc 1 117 0
 339 00de FFF7FEFF 		bl	BlinkUserLED
 340              	.LVL41:
 118:main.c        ****                         continue;
 341              		.loc 1 118 0
 342 00e2 BFE7     		b	.L11
 343              	.LVL42:
 344              	.L19:
 119:main.c        ****                     }
 120:main.c        **** 
 121:main.c        ****                     CyDelay(500);
 345              		.loc 1 121 0
 346 00e4 FA20     		movs	r0, #250
 347 00e6 4000     		lsls	r0, r0, #1
 348 00e8 FFF7FEFF 		bl	CyDelay
 349              	.LVL43:
 122:main.c        **** 
 123:main.c        ****                     uint8_t target = rand() % 3;
 350              		.loc 1 123 0
 351 00ec FFF7FEFF 		bl	rand
 352              	.LVL44:
 353 00f0 0321     		movs	r1, #3
 354 00f2 FFF7FEFF 		bl	__aeabi_idivmod
 355              	.LVL45:
 356 00f6 CFB2     		uxtb	r7, r1
 357              	.LVL46:
 358 00f8 FF26     		movs	r6, #255
 359 00fa 0E40     		ands	r6, r1
 124:main.c        **** 
 125:main.c        ****                     switch (target)
 360              		.loc 1 125 0
 361 00fc 012E     		cmp	r6, #1
ARM GAS  C:\Users\adm\AppData\Local\Temp\ccKmOFLK.s 			page 11


 362 00fe 07D0     		beq	.L22
 363 0100 022E     		cmp	r6, #2
 364 0102 09D0     		beq	.L23
 365 0104 002E     		cmp	r6, #0
 366 0106 0AD1     		bne	.L21
 126:main.c        ****                     {
 127:main.c        ****                         case 0: LED_CapSense_Button_0_Write(0); break;
 367              		.loc 1 127 0
 368 0108 0020     		movs	r0, #0
 369 010a FFF7FEFF 		bl	LED_CapSense_Button_0_Write
 370              	.LVL47:
 371 010e 06E0     		b	.L21
 372              	.L22:
 128:main.c        ****                         case 1: LED_CapSense_Button_1_Write(0); break;
 373              		.loc 1 128 0
 374 0110 0020     		movs	r0, #0
 375 0112 FFF7FEFF 		bl	LED_CapSense_Button_1_Write
 376              	.LVL48:
 377 0116 02E0     		b	.L21
 378              	.L23:
 129:main.c        ****                         case 2: LED_CapSense_Button_2_Write(0); break;
 379              		.loc 1 129 0
 380 0118 0020     		movs	r0, #0
 381 011a FFF7FEFF 		bl	LED_CapSense_Button_2_Write
 382              	.LVL49:
 383              	.L21:
 130:main.c        ****                     }
 131:main.c        **** 
 132:main.c        ****                     uint32_t startTime = CySysTickGetValue();
 384              		.loc 1 132 0
 385 011e FFF7FEFF 		bl	CySysTickGetValue
 386              	.LVL50:
 387 0122 0390     		str	r0, [sp, #12]
 388              	.LVL51:
 133:main.c        ****                     uint32_t timeoutStart = CySysTickGetValue();
 389              		.loc 1 133 0
 390 0124 FFF7FEFF 		bl	CySysTickGetValue
 391              	.LVL52:
 392 0128 0500     		movs	r5, r0
 393              	.LVL53:
 134:main.c        ****                     uint8_t hit = 0;
 135:main.c        **** 
 136:main.c        ****                     while ((CySysTickGetValue() - timeoutStart) < IDLE_MS * 1000)
 394              		.loc 1 136 0
 395 012a 72E0     		b	.L25
 396              	.LVL54:
 397              	.L34:
 398              	.LBB10:
 137:main.c        ****                     {
 138:main.c        ****                         if (resetRequested) {
 399              		.loc 1 138 0
 400 012c 474B     		ldr	r3, .L41+8
 401 012e 1B7A     		ldrb	r3, [r3, #8]
 402 0130 002B     		cmp	r3, #0
 403 0132 07D0     		beq	.L26
 139:main.c        ****                             UART_UartPutString("Game Restarted by Reset Button\r\n");
 404              		.loc 1 139 0
ARM GAS  C:\Users\adm\AppData\Local\Temp\ccKmOFLK.s 			page 12


 405 0134 4648     		ldr	r0, .L41+12
 406 0136 FFF7FEFF 		bl	UART_UartPutString
 407              	.LVL55:
 140:main.c        ****                             resetRequested = 0;
 408              		.loc 1 140 0
 409 013a 0022     		movs	r2, #0
 410 013c 434B     		ldr	r3, .L41+8
 411 013e 1A72     		strb	r2, [r3, #8]
 141:main.c        ****                             hit = 0;
 412              		.loc 1 141 0
 413 0140 0024     		movs	r4, #0
 142:main.c        ****                             goto end_of_round;
 414              		.loc 1 142 0
 415 0142 6DE0     		b	.L27
 416              	.L26:
 143:main.c        ****                         }
 144:main.c        **** 
 145:main.c        ****                         CapSense_ProcessAllWidgets();
 417              		.loc 1 145 0
 418 0144 FFF7FEFF 		bl	CapSense_ProcessAllWidgets
 419              	.LVL56:
 146:main.c        **** 
 147:main.c        ****                         uint8_t pressed = 255;
 148:main.c        **** 
 149:main.c        ****                         if (CapSense_IsWidgetActive(CapSense_BUTTON0_WDGT_ID)) {
 420              		.loc 1 149 0
 421 0148 0020     		movs	r0, #0
 422 014a FFF7FEFF 		bl	CapSense_IsWidgetActive
 423              	.LVL57:
 424 014e 0028     		cmp	r0, #0
 425 0150 09D0     		beq	.L28
 150:main.c        ****                             CyDelay(20);
 426              		.loc 1 150 0
 427 0152 1420     		movs	r0, #20
 428 0154 FFF7FEFF 		bl	CyDelay
 429              	.LVL58:
 151:main.c        ****                             if (CapSense_IsWidgetActive(CapSense_BUTTON0_WDGT_ID)) pressed = 0;
 430              		.loc 1 151 0
 431 0158 0020     		movs	r0, #0
 432 015a FFF7FEFF 		bl	CapSense_IsWidgetActive
 433              	.LVL59:
 434 015e 0028     		cmp	r0, #0
 435 0160 1FD1     		bne	.L37
 147:main.c        **** 
 436              		.loc 1 147 0
 437 0162 FF24     		movs	r4, #255
 438 0164 24E0     		b	.L29
 439              	.L28:
 152:main.c        ****                         } 
 153:main.c        ****                         else if (CapSense_IsWidgetActive(CapSense_BUTTON1_WDGT_ID)) {
 440              		.loc 1 153 0
 441 0166 0120     		movs	r0, #1
 442 0168 FFF7FEFF 		bl	CapSense_IsWidgetActive
 443              	.LVL60:
 444 016c 0028     		cmp	r0, #0
 445 016e 09D0     		beq	.L30
 154:main.c        ****                             CyDelay(20);
ARM GAS  C:\Users\adm\AppData\Local\Temp\ccKmOFLK.s 			page 13


 446              		.loc 1 154 0
 447 0170 1420     		movs	r0, #20
 448 0172 FFF7FEFF 		bl	CyDelay
 449              	.LVL61:
 155:main.c        ****                             if (CapSense_IsWidgetActive(CapSense_BUTTON1_WDGT_ID)) pressed = 1;
 450              		.loc 1 155 0
 451 0176 0120     		movs	r0, #1
 452 0178 FFF7FEFF 		bl	CapSense_IsWidgetActive
 453              	.LVL62:
 454 017c 0028     		cmp	r0, #0
 455 017e 12D1     		bne	.L38
 147:main.c        **** 
 456              		.loc 1 147 0
 457 0180 FF24     		movs	r4, #255
 458 0182 15E0     		b	.L29
 459              	.L30:
 156:main.c        ****                         } 
 157:main.c        ****                         else if (CapSense_IsWidgetActive(CapSense_BUTTON2_WDGT_ID)) {
 460              		.loc 1 157 0
 461 0184 0220     		movs	r0, #2
 462 0186 FFF7FEFF 		bl	CapSense_IsWidgetActive
 463              	.LVL63:
 464 018a 0028     		cmp	r0, #0
 465 018c 0DD0     		beq	.L39
 158:main.c        ****                             CyDelay(20);
 466              		.loc 1 158 0
 467 018e 1420     		movs	r0, #20
 468 0190 FFF7FEFF 		bl	CyDelay
 469              	.LVL64:
 159:main.c        ****                             if (CapSense_IsWidgetActive(CapSense_BUTTON2_WDGT_ID)) pressed = 2;
 470              		.loc 1 159 0
 471 0194 0220     		movs	r0, #2
 472 0196 FFF7FEFF 		bl	CapSense_IsWidgetActive
 473              	.LVL65:
 474 019a 0028     		cmp	r0, #0
 475 019c 07D1     		bne	.L40
 147:main.c        **** 
 476              		.loc 1 147 0
 477 019e FF24     		movs	r4, #255
 478 01a0 06E0     		b	.L29
 479              	.L37:
 151:main.c        ****                         } 
 480              		.loc 1 151 0
 481 01a2 0024     		movs	r4, #0
 482 01a4 04E0     		b	.L29
 483              	.L38:
 155:main.c        ****                         } 
 484              		.loc 1 155 0
 485 01a6 0124     		movs	r4, #1
 486 01a8 02E0     		b	.L29
 487              	.L39:
 147:main.c        **** 
 488              		.loc 1 147 0
 489 01aa FF24     		movs	r4, #255
 490 01ac 00E0     		b	.L29
 491              	.L40:
 492              		.loc 1 159 0
ARM GAS  C:\Users\adm\AppData\Local\Temp\ccKmOFLK.s 			page 14


 493 01ae 0224     		movs	r4, #2
 494              	.L29:
 495              	.LVL66:
 160:main.c        ****                         }
 161:main.c        **** 
 162:main.c        ****                         if (pressed != 255)
 496              		.loc 1 162 0
 497 01b0 FF2C     		cmp	r4, #255
 498 01b2 29D0     		beq	.L31
 499              	.LBB11:
 163:main.c        ****                         {
 164:main.c        ****                             uint32_t reactionTime = (CySysTickGetValue() - startTime) / 1000;
 500              		.loc 1 164 0
 501 01b4 FFF7FEFF 		bl	CySysTickGetValue
 502              	.LVL67:
 503 01b8 039B     		ldr	r3, [sp, #12]
 504 01ba C01A     		subs	r0, r0, r3
 505 01bc FA21     		movs	r1, #250
 506 01be 8900     		lsls	r1, r1, #2
 507 01c0 FFF7FEFF 		bl	__aeabi_uidiv
 508              	.LVL68:
 509 01c4 0500     		movs	r5, r0
 510              	.LVL69:
 165:main.c        **** 
 166:main.c        ****                             char msg[64];
 167:main.c        ****                             sprintf(msg, "Pressed: %d, Expected: %d, Time: %lu ms\r\n",
 511              		.loc 1 167 0
 512 01c6 0090     		str	r0, [sp]
 513 01c8 3300     		movs	r3, r6
 514 01ca 2200     		movs	r2, r4
 515 01cc 2349     		ldr	r1, .L41+24
 516 01ce 04A8     		add	r0, sp, #16
 517              	.LVL70:
 518 01d0 FFF7FEFF 		bl	sprintf
 519              	.LVL71:
 168:main.c        ****                                 pressed, target, (unsigned long)reactionTime);
 169:main.c        ****                             UART_UartPutString(msg);
 520              		.loc 1 169 0
 521 01d4 04A8     		add	r0, sp, #16
 522 01d6 FFF7FEFF 		bl	UART_UartPutString
 523              	.LVL72:
 170:main.c        **** 
 171:main.c        ****                             if (pressed == target && reactionTime <= TIMEOUT_MS)
 524              		.loc 1 171 0
 525 01da BC42     		cmp	r4, r7
 526 01dc 0BD1     		bne	.L32
 527              		.loc 1 171 0 is_stmt 0 discriminator 1
 528 01de FA23     		movs	r3, #250
 529 01e0 9B00     		lsls	r3, r3, #2
 530 01e2 9D42     		cmp	r5, r3
 531 01e4 07D8     		bhi	.L32
 172:main.c        ****                             {
 173:main.c        ****                                 roundCount++;
 532              		.loc 1 173 0 is_stmt 1
 533 01e6 194B     		ldr	r3, .L41+8
 534 01e8 1A68     		ldr	r2, [r3]
 535 01ea 0132     		adds	r2, r2, #1
ARM GAS  C:\Users\adm\AppData\Local\Temp\ccKmOFLK.s 			page 15


 536 01ec 1A60     		str	r2, [r3]
 174:main.c        ****                                 totalReactionTime += reactionTime;
 537              		.loc 1 174 0
 538 01ee 5A68     		ldr	r2, [r3, #4]
 539 01f0 5419     		adds	r4, r2, r5
 540              	.LVL73:
 541 01f2 5C60     		str	r4, [r3, #4]
 542 01f4 06E0     		b	.L33
 543              	.LVL74:
 544              	.L32:
 175:main.c        ****                             }
 176:main.c        ****                             else
 177:main.c        ****                             {
 178:main.c        ****                                 UART_UartPutString("Incorrect or Late Press!\r\n");
 545              		.loc 1 178 0
 546 01f6 1A48     		ldr	r0, .L41+28
 547 01f8 FFF7FEFF 		bl	UART_UartPutString
 548              	.LVL75:
 179:main.c        ****                                 BlinkUserLED();
 549              		.loc 1 179 0
 550 01fc FFF7FEFF 		bl	BlinkUserLED
 551              	.LVL76:
 180:main.c        ****                                 OutputStats();
 552              		.loc 1 180 0
 553 0200 FFF7FEFF 		bl	OutputStats
 554              	.LVL77:
 555              	.L33:
 181:main.c        ****                             }
 182:main.c        **** 
 183:main.c        ****                             hit = 1;
 556              		.loc 1 183 0
 557 0204 0124     		movs	r4, #1
 558 0206 0BE0     		b	.L27
 559              	.LVL78:
 560              	.L31:
 561              	.LBE11:
 184:main.c        ****                             break;
 185:main.c        ****                         }
 186:main.c        **** 
 187:main.c        ****                         CapSense_ScanAllWidgets();
 562              		.loc 1 187 0
 563 0208 FFF7FEFF 		bl	CapSense_ScanAllWidgets
 564              	.LVL79:
 188:main.c        ****                         CyDelay(10);
 565              		.loc 1 188 0
 566 020c 0A20     		movs	r0, #10
 567 020e FFF7FEFF 		bl	CyDelay
 568              	.LVL80:
 569              	.L25:
 570              	.LBE10:
 136:main.c        ****                     {
 571              		.loc 1 136 0
 572 0212 FFF7FEFF 		bl	CySysTickGetValue
 573              	.LVL81:
 574 0216 401B     		subs	r0, r0, r5
 575 0218 124B     		ldr	r3, .L41+32
 576 021a 9842     		cmp	r0, r3
ARM GAS  C:\Users\adm\AppData\Local\Temp\ccKmOFLK.s 			page 16


 577 021c 86D9     		bls	.L34
 134:main.c        **** 
 578              		.loc 1 134 0
 579 021e 0024     		movs	r4, #0
 580              	.LVL82:
 581              	.L27:
 189:main.c        ****                     }
 190:main.c        **** 
 191:main.c        ****                 end_of_round:
 192:main.c        ****                     TurnOffAllLEDs();
 582              		.loc 1 192 0
 583 0220 FFF7FEFF 		bl	TurnOffAllLEDs
 584              	.LVL83:
 193:main.c        **** 
 194:main.c        ****                     if (!hit)
 585              		.loc 1 194 0
 586 0224 002C     		cmp	r4, #0
 587 0226 07D1     		bne	.L35
 195:main.c        ****                     {
 196:main.c        ****                         UART_UartPutString("Miss or Timeout!\r\n");
 588              		.loc 1 196 0
 589 0228 0F48     		ldr	r0, .L41+36
 590 022a FFF7FEFF 		bl	UART_UartPutString
 591              	.LVL84:
 197:main.c        ****                         BlinkUserLED();
 592              		.loc 1 197 0
 593 022e FFF7FEFF 		bl	BlinkUserLED
 594              	.LVL85:
 198:main.c        ****                         OutputStats();
 595              		.loc 1 198 0
 596 0232 FFF7FEFF 		bl	OutputStats
 597              	.LVL86:
 199:main.c        ****                         continue;
 598              		.loc 1 199 0
 599 0236 15E7     		b	.L11
 600              	.L35:
 200:main.c        ****                     }
 201:main.c        **** 
 202:main.c        ****                     CyDelay(500);
 601              		.loc 1 202 0
 602 0238 FA20     		movs	r0, #250
 603 023a 4000     		lsls	r0, r0, #1
 604 023c FFF7FEFF 		bl	CyDelay
 605              	.LVL87:
 606 0240 10E7     		b	.L11
 607              	.L42:
 608 0242 C046     		.align	2
 609              	.L41:
 610 0244 20000000 		.word	.LC3
 611 0248 50000000 		.word	.LC5
 612 024c 00000000 		.word	.LANCHOR0
 613 0250 60000000 		.word	.LC8
 614 0254 7F841E00 		.word	1999999
 615 0258 84000000 		.word	.LC10
 616 025c B0000000 		.word	.LC12
 617 0260 DC000000 		.word	.LC14
 618 0264 BFC62D00 		.word	2999999
ARM GAS  C:\Users\adm\AppData\Local\Temp\ccKmOFLK.s 			page 17


 619 0268 F8000000 		.word	.LC16
 620              	.LBE9:
 621              		.cfi_endproc
 622              	.LFE37:
 623              		.size	main, .-main
 624              		.global	totalReactionTime
 625              		.global	roundCount
 626              		.global	resetRequested
 627              		.section	.rodata.str1.4,"aMS",%progbits,1
 628              		.align	2
 629              	.LC1:
 630 0000 526F756E 		.ascii	"Rounds: %lu, Avg Time: %lu ms\015\012\000"
 630      64733A20 
 630      256C752C 
 630      20417667 
 630      2054696D 
 631              	.LC3:
 632 0020 47616D65 		.ascii	"Game Ready. Press User Button (SW2) to Start.\015\012"
 632      20526561 
 632      64792E20 
 632      50726573 
 632      73205573 
 633 004f 00       		.ascii	"\000"
 634              	.LC5:
 635 0050 47616D65 		.ascii	"Game Started\012\000"
 635      20537461 
 635      72746564 
 635      0A00
 636 005e 0000     		.space	2
 637              	.LC8:
 638 0060 47616D65 		.ascii	"Game Restarted by Reset Button\015\012\000"
 638      20526573 
 638      74617274 
 638      65642062 
 638      79205265 
 639 0081 000000   		.space	3
 640              	.LC10:
 641 0084 42757474 		.ascii	"Buttons held too long, skipping round...\015\012\000"
 641      6F6E7320 
 641      68656C64 
 641      20746F6F 
 641      206C6F6E 
 642 00af 00       		.space	1
 643              	.LC12:
 644 00b0 50726573 		.ascii	"Pressed: %d, Expected: %d, Time: %lu ms\015\012\000"
 644      7365643A 
 644      2025642C 
 644      20457870 
 644      65637465 
 645 00da 0000     		.space	2
 646              	.LC14:
 647 00dc 496E636F 		.ascii	"Incorrect or Late Press!\015\012\000"
 647      72726563 
 647      74206F72 
 647      204C6174 
 647      65205072 
 648 00f7 00       		.space	1
ARM GAS  C:\Users\adm\AppData\Local\Temp\ccKmOFLK.s 			page 18


 649              	.LC16:
 650 00f8 4D697373 		.ascii	"Miss or Timeout!\015\012\000"
 650      206F7220 
 650      54696D65 
 650      6F757421 
 650      0D0A00
 651              		.bss
 652              		.align	2
 653              		.set	.LANCHOR0,. + 0
 654              		.type	roundCount, %object
 655              		.size	roundCount, 4
 656              	roundCount:
 657 0000 00000000 		.space	4
 658              		.type	totalReactionTime, %object
 659              		.size	totalReactionTime, 4
 660              	totalReactionTime:
 661 0004 00000000 		.space	4
 662              		.type	resetRequested, %object
 663              		.size	resetRequested, 1
 664              	resetRequested:
 665 0008 00       		.space	1
 666              		.text
 667              	.Letext0:
 668              		.file 3 "f:\\psoccreator\\psoc creator\\4.4\\psoc creator\\import\\gnu\\arm\\5.4.1\\arm-none-eabi\
 669              		.file 4 "f:\\psoccreator\\psoc creator\\4.4\\psoc creator\\import\\gnu\\arm\\5.4.1\\arm-none-eabi\
 670              		.file 5 "Generated_Source\\PSoC4/cytypes.h"
 671              		.file 6 "Generated_Source\\PSoC4/LED_CapSense_Button_0.h"
 672              		.file 7 "Generated_Source\\PSoC4/LED_CapSense_Button_1.h"
 673              		.file 8 "Generated_Source\\PSoC4/LED_CapSense_Button_2.h"
 674              		.file 9 "Generated_Source\\PSoC4/LED_User_status.h"
 675              		.file 10 "Generated_Source\\PSoC4/CyLib.h"
 676              		.file 11 "f:\\psoccreator\\psoc creator\\4.4\\psoc creator\\import\\gnu\\arm\\5.4.1\\arm-none-eabi
 677              		.file 12 "Generated_Source\\PSoC4/UART_SPI_UART.h"
 678              		.file 13 "Generated_Source\\PSoC4/CapSense_Control.h"
 679              		.file 14 "Generated_Source\\PSoC4/CapSense_Structure.h"
 680              		.file 15 "Generated_Source\\PSoC4/CapSense_Sensing.h"
 681              		.file 16 "f:\\psoccreator\\psoc creator\\4.4\\psoc creator\\import\\gnu\\arm\\5.4.1\\arm-none-eabi
 682              		.file 17 "Generated_Source\\PSoC4/UART.h"
 683              		.file 18 "Generated_Source\\PSoC4/User_button_pin.h"