ARM GAS  C:\Users\adm\AppData\Local\Temp\ccC6DlY0.s 			page 1


   1              		.syntax unified
   2              		.cpu cortex-m0plus
   3              		.fpu softvfp
   4              		.eabi_attribute 20, 1
   5              		.eabi_attribute 21, 1
   6              		.eabi_attribute 23, 3
   7              		.eabi_attribute 24, 1
   8              		.eabi_attribute 25, 1
   9              		.eabi_attribute 26, 1
  10              		.eabi_attribute 30, 1
  11              		.eabi_attribute 34, 0
  12              		.eabi_attribute 18, 4
  13              		.thumb
  14              		.syntax unified
  15              		.file	"main.c"
  16              		.text
  17              	.Ltext0:
  18              		.cfi_sections	.debug_frame
  19              		.section	.text.UserButtonISR,"ax",%progbits
  20              		.align	2
  21              		.global	UserButtonISR
  22              		.code	16
  23              		.thumb_func
  24              		.type	UserButtonISR, %function
  25              	UserButtonISR:
  26              	.LFB38:
  27              		.file 1 "main.c"
   1:main.c        **** #include "project.h"
   2:main.c        **** #include <stdio.h>
   3:main.c        **** #include <stdlib.h>
   4:main.c        **** 
   5:main.c        **** #define TIMEOUT_MS 1000
   6:main.c        **** #define IDLE_MS 3000
   7:main.c        **** #define IDLE_TIMEOUT_MS 5000
   8:main.c        **** uint32_t lastActivityTime = 0;
   9:main.c        **** uint8_t inLowPowerMode = 0;
  10:main.c        **** uint8_t resumeFromSleep = 0;
  11:main.c        **** uint8_t resumeTarget = 255;
  12:main.c        **** uint32_t resumeStartTime = 0;
  13:main.c        **** uint32_t resumeTimeoutStart = 0;
  14:main.c        **** 
  15:main.c        **** volatile uint8_t resetRequested = 0;
  16:main.c        **** 
  17:main.c        **** uint32_t roundCount = 0;
  18:main.c        **** uint32_t totalReactionTime = 0;
  19:main.c        **** 
  20:main.c        **** void TurnOffAllLEDs() {
  21:main.c        ****     LED_CapSense_Button_0_Write(1);
  22:main.c        ****     LED_CapSense_Button_1_Write(1);
  23:main.c        ****     LED_CapSense_Button_2_Write(1);
  24:main.c        **** }
  25:main.c        **** 
  26:main.c        **** void EnterLowPowerMode()
  27:main.c        **** {
  28:main.c        ****     UART_Stop(); // optional: stop UART to save power
  29:main.c        ****     LED_User_status_Write(1); // turn off status LED
  30:main.c        ****     inLowPowerMode = 1;
ARM GAS  C:\Users\adm\AppData\Local\Temp\ccC6DlY0.s 			page 2


  31:main.c        **** 
  32:main.c        ****     UART_UartPutString("Entering Low Power Mode...\r\n");
  33:main.c        **** 
  34:main.c        ****     while (inLowPowerMode)
  35:main.c        ****     {
  36:main.c        ****         // Start CapSense scan to allow wake-on-touch
  37:main.c        ****         CapSense_ScanAllWidgets();
  38:main.c        ****         while (CapSense_IsBusy());
  39:main.c        **** 
  40:main.c        ****         CapSense_ProcessAllWidgets();
  41:main.c        **** 
  42:main.c        ****         if (CapSense_IsAnyWidgetActive())
  43:main.c        ****         {
  44:main.c        ****             inLowPowerMode = 0;
  45:main.c        ****             break;
  46:main.c        ****         }
  47:main.c        **** 
  48:main.c        ****         if (User_button_pin_Read() == 0)
  49:main.c        ****         {
  50:main.c        ****             inLowPowerMode = 0;
  51:main.c        ****             break;
  52:main.c        ****         }
  53:main.c        **** 
  54:main.c        ****         CySysPmSleep(); // enter core sleep
  55:main.c        ****     }
  56:main.c        **** 
  57:main.c        ****     UART_Start(); // restart UART
  58:main.c        ****     UART_UartPutString("Woke from Low Power Mode\r\n");
  59:main.c        **** }
  60:main.c        **** 
  61:main.c        **** 
  62:main.c        **** void BlinkUserLED() {
  63:main.c        ****     LED_User_status_Write(0);
  64:main.c        ****     CyDelay(200);
  65:main.c        ****     LED_User_status_Write(1);
  66:main.c        **** }
  67:main.c        **** 
  68:main.c        **** void OutputStats() {
  69:main.c        ****     char msg[64];
  70:main.c        ****     if (roundCount > 0) {
  71:main.c        ****         sprintf(msg, "Rounds: %lu, Avg Time: %lu ms\r\n",
  72:main.c        ****             (unsigned long)roundCount,
  73:main.c        ****             (unsigned long)(totalReactionTime / roundCount));
  74:main.c        ****         UART_UartPutString(msg);
  75:main.c        ****     }
  76:main.c        **** }
  77:main.c        **** 
  78:main.c        **** CY_ISR(UserButtonISR)
  79:main.c        **** {
  28              		.loc 1 79 0
  29              		.cfi_startproc
  30              		@ args = 0, pretend = 0, frame = 0
  31              		@ frame_needed = 0, uses_anonymous_args = 0
  32 0000 10B5     		push	{r4, lr}
  33              		.cfi_def_cfa_offset 8
  34              		.cfi_offset 4, -8
  35              		.cfi_offset 14, -4
ARM GAS  C:\Users\adm\AppData\Local\Temp\ccC6DlY0.s 			page 3


  80:main.c        ****     resetRequested = 1;
  36              		.loc 1 80 0
  37 0002 0122     		movs	r2, #1
  38 0004 024B     		ldr	r3, .L2
  39 0006 1A70     		strb	r2, [r3]
  81:main.c        ****     User_button_pin_ClearInterrupt(); // Clear the interrupt flag
  40              		.loc 1 81 0
  41 0008 FFF7FEFF 		bl	User_button_pin_ClearInterrupt
  42              	.LVL0:
  82:main.c        **** }
  43              		.loc 1 82 0
  44              		@ sp needed
  45 000c 10BD     		pop	{r4, pc}
  46              	.L3:
  47 000e C046     		.align	2
  48              	.L2:
  49 0010 00000000 		.word	.LANCHOR0
  50              		.cfi_endproc
  51              	.LFE38:
  52              		.size	UserButtonISR, .-UserButtonISR
  53              		.section	.text.TurnOffAllLEDs,"ax",%progbits
  54              		.align	2
  55              		.global	TurnOffAllLEDs
  56              		.code	16
  57              		.thumb_func
  58              		.type	TurnOffAllLEDs, %function
  59              	TurnOffAllLEDs:
  60              	.LFB34:
  20:main.c        ****     LED_CapSense_Button_0_Write(1);
  61              		.loc 1 20 0
  62              		.cfi_startproc
  63              		@ args = 0, pretend = 0, frame = 0
  64              		@ frame_needed = 0, uses_anonymous_args = 0
  65 0000 10B5     		push	{r4, lr}
  66              		.cfi_def_cfa_offset 8
  67              		.cfi_offset 4, -8
  68              		.cfi_offset 14, -4
  21:main.c        ****     LED_CapSense_Button_1_Write(1);
  69              		.loc 1 21 0
  70 0002 0120     		movs	r0, #1
  71 0004 FFF7FEFF 		bl	LED_CapSense_Button_0_Write
  72              	.LVL1:
  22:main.c        ****     LED_CapSense_Button_2_Write(1);
  73              		.loc 1 22 0
  74 0008 0120     		movs	r0, #1
  75 000a FFF7FEFF 		bl	LED_CapSense_Button_1_Write
  76              	.LVL2:
  23:main.c        **** }
  77              		.loc 1 23 0
  78 000e 0120     		movs	r0, #1
  79 0010 FFF7FEFF 		bl	LED_CapSense_Button_2_Write
  80              	.LVL3:
  24:main.c        **** 
  81              		.loc 1 24 0
  82              		@ sp needed
  83 0014 10BD     		pop	{r4, pc}
  84              		.cfi_endproc
ARM GAS  C:\Users\adm\AppData\Local\Temp\ccC6DlY0.s 			page 4


  85              	.LFE34:
  86              		.size	TurnOffAllLEDs, .-TurnOffAllLEDs
  87 0016 C046     		.section	.text.EnterLowPowerMode,"ax",%progbits
  88              		.align	2
  89              		.global	EnterLowPowerMode
  90              		.code	16
  91              		.thumb_func
  92              		.type	EnterLowPowerMode, %function
  93              	EnterLowPowerMode:
  94              	.LFB35:
  27:main.c        ****     UART_Stop(); // optional: stop UART to save power
  95              		.loc 1 27 0
  96              		.cfi_startproc
  97              		@ args = 0, pretend = 0, frame = 0
  98              		@ frame_needed = 0, uses_anonymous_args = 0
  99 0000 10B5     		push	{r4, lr}
 100              		.cfi_def_cfa_offset 8
 101              		.cfi_offset 4, -8
 102              		.cfi_offset 14, -4
  28:main.c        ****     LED_User_status_Write(1); // turn off status LED
 103              		.loc 1 28 0
 104 0002 FFF7FEFF 		bl	UART_Stop
 105              	.LVL4:
  29:main.c        ****     inLowPowerMode = 1;
 106              		.loc 1 29 0
 107 0006 0120     		movs	r0, #1
 108 0008 FFF7FEFF 		bl	LED_User_status_Write
 109              	.LVL5:
  30:main.c        **** 
 110              		.loc 1 30 0
 111 000c 0122     		movs	r2, #1
 112 000e 154B     		ldr	r3, .L12
 113 0010 5A70     		strb	r2, [r3, #1]
  32:main.c        **** 
 114              		.loc 1 32 0
 115 0012 1548     		ldr	r0, .L12+4
 116 0014 FFF7FEFF 		bl	UART_UartPutString
 117              	.LVL6:
  34:main.c        ****     {
 118              		.loc 1 34 0
 119 0018 19E0     		b	.L6
 120              	.L11:
  37:main.c        ****         while (CapSense_IsBusy());
 121              		.loc 1 37 0
 122 001a FFF7FEFF 		bl	CapSense_ScanAllWidgets
 123              	.LVL7:
 124              	.L7:
  38:main.c        **** 
 125              		.loc 1 38 0 discriminator 1
 126 001e FFF7FEFF 		bl	CapSense_IsBusy
 127              	.LVL8:
 128 0022 0028     		cmp	r0, #0
 129 0024 FBD1     		bne	.L7
  40:main.c        **** 
 130              		.loc 1 40 0
 131 0026 FFF7FEFF 		bl	CapSense_ProcessAllWidgets
 132              	.LVL9:
ARM GAS  C:\Users\adm\AppData\Local\Temp\ccC6DlY0.s 			page 5


  42:main.c        ****         {
 133              		.loc 1 42 0
 134 002a FFF7FEFF 		bl	CapSense_IsAnyWidgetActive
 135              	.LVL10:
 136 002e 0028     		cmp	r0, #0
 137 0030 03D0     		beq	.L8
  44:main.c        ****             break;
 138              		.loc 1 44 0
 139 0032 0022     		movs	r2, #0
 140 0034 0B4B     		ldr	r3, .L12
 141 0036 5A70     		strb	r2, [r3, #1]
  45:main.c        ****         }
 142              		.loc 1 45 0
 143 0038 0DE0     		b	.L9
 144              	.L8:
  48:main.c        ****         {
 145              		.loc 1 48 0
 146 003a FFF7FEFF 		bl	User_button_pin_Read
 147              	.LVL11:
 148 003e 0028     		cmp	r0, #0
 149 0040 03D1     		bne	.L10
  50:main.c        ****             break;
 150              		.loc 1 50 0
 151 0042 0022     		movs	r2, #0
 152 0044 074B     		ldr	r3, .L12
 153 0046 5A70     		strb	r2, [r3, #1]
  51:main.c        ****         }
 154              		.loc 1 51 0
 155 0048 05E0     		b	.L9
 156              	.L10:
  54:main.c        ****     }
 157              		.loc 1 54 0
 158 004a FFF7FEFF 		bl	CySysPmSleep
 159              	.LVL12:
 160              	.L6:
  34:main.c        ****     {
 161              		.loc 1 34 0
 162 004e 054B     		ldr	r3, .L12
 163 0050 5B78     		ldrb	r3, [r3, #1]
 164 0052 002B     		cmp	r3, #0
 165 0054 E1D1     		bne	.L11
 166              	.L9:
  57:main.c        ****     UART_UartPutString("Woke from Low Power Mode\r\n");
 167              		.loc 1 57 0
 168 0056 FFF7FEFF 		bl	UART_Start
 169              	.LVL13:
  58:main.c        **** }
 170              		.loc 1 58 0
 171 005a 0448     		ldr	r0, .L12+8
 172 005c FFF7FEFF 		bl	UART_UartPutString
 173              	.LVL14:
  59:main.c        **** 
 174              		.loc 1 59 0
 175              		@ sp needed
 176 0060 10BD     		pop	{r4, pc}
 177              	.L13:
 178 0062 C046     		.align	2
ARM GAS  C:\Users\adm\AppData\Local\Temp\ccC6DlY0.s 			page 6


 179              	.L12:
 180 0064 00000000 		.word	.LANCHOR0
 181 0068 00000000 		.word	.LC2
 182 006c 20000000 		.word	.LC4
 183              		.cfi_endproc
 184              	.LFE35:
 185              		.size	EnterLowPowerMode, .-EnterLowPowerMode
 186              		.section	.text.BlinkUserLED,"ax",%progbits
 187              		.align	2
 188              		.global	BlinkUserLED
 189              		.code	16
 190              		.thumb_func
 191              		.type	BlinkUserLED, %function
 192              	BlinkUserLED:
 193              	.LFB36:
  62:main.c        ****     LED_User_status_Write(0);
 194              		.loc 1 62 0
 195              		.cfi_startproc
 196              		@ args = 0, pretend = 0, frame = 0
 197              		@ frame_needed = 0, uses_anonymous_args = 0
 198 0000 10B5     		push	{r4, lr}
 199              		.cfi_def_cfa_offset 8
 200              		.cfi_offset 4, -8
 201              		.cfi_offset 14, -4
  63:main.c        ****     CyDelay(200);
 202              		.loc 1 63 0
 203 0002 0020     		movs	r0, #0
 204 0004 FFF7FEFF 		bl	LED_User_status_Write
 205              	.LVL15:
  64:main.c        ****     LED_User_status_Write(1);
 206              		.loc 1 64 0
 207 0008 C820     		movs	r0, #200
 208 000a FFF7FEFF 		bl	CyDelay
 209              	.LVL16:
  65:main.c        **** }
 210              		.loc 1 65 0
 211 000e 0120     		movs	r0, #1
 212 0010 FFF7FEFF 		bl	LED_User_status_Write
 213              	.LVL17:
  66:main.c        **** 
 214              		.loc 1 66 0
 215              		@ sp needed
 216 0014 10BD     		pop	{r4, pc}
 217              		.cfi_endproc
 218              	.LFE36:
 219              		.size	BlinkUserLED, .-BlinkUserLED
 220              		.global	__aeabi_uidiv
 221 0016 C046     		.section	.text.OutputStats,"ax",%progbits
 222              		.align	2
 223              		.global	OutputStats
 224              		.code	16
 225              		.thumb_func
 226              		.type	OutputStats, %function
 227              	OutputStats:
 228              	.LFB37:
  68:main.c        ****     char msg[64];
 229              		.loc 1 68 0
ARM GAS  C:\Users\adm\AppData\Local\Temp\ccC6DlY0.s 			page 7


 230              		.cfi_startproc
 231              		@ args = 0, pretend = 0, frame = 64
 232              		@ frame_needed = 0, uses_anonymous_args = 0
 233 0000 10B5     		push	{r4, lr}
 234              		.cfi_def_cfa_offset 8
 235              		.cfi_offset 4, -8
 236              		.cfi_offset 14, -4
 237 0002 90B0     		sub	sp, sp, #64
 238              		.cfi_def_cfa_offset 72
  70:main.c        ****         sprintf(msg, "Rounds: %lu, Avg Time: %lu ms\r\n",
 239              		.loc 1 70 0
 240 0004 094B     		ldr	r3, .L17
 241 0006 5C68     		ldr	r4, [r3, #4]
 242 0008 002C     		cmp	r4, #0
 243 000a 0CD0     		beq	.L15
  71:main.c        ****             (unsigned long)roundCount,
 244              		.loc 1 71 0
 245 000c 9868     		ldr	r0, [r3, #8]
  73:main.c        ****         UART_UartPutString(msg);
 246              		.loc 1 73 0
 247 000e 2100     		movs	r1, r4
 248 0010 FFF7FEFF 		bl	__aeabi_uidiv
 249              	.LVL18:
 250 0014 0300     		movs	r3, r0
  71:main.c        ****             (unsigned long)roundCount,
 251              		.loc 1 71 0
 252 0016 2200     		movs	r2, r4
 253 0018 0549     		ldr	r1, .L17+4
 254 001a 6846     		mov	r0, sp
 255 001c FFF7FEFF 		bl	sprintf
 256              	.LVL19:
  74:main.c        ****     }
 257              		.loc 1 74 0
 258 0020 6846     		mov	r0, sp
 259 0022 FFF7FEFF 		bl	UART_UartPutString
 260              	.LVL20:
 261              	.L15:
  76:main.c        **** 
 262              		.loc 1 76 0
 263 0026 10B0     		add	sp, sp, #64
 264              		@ sp needed
 265 0028 10BD     		pop	{r4, pc}
 266              	.L18:
 267 002a C046     		.align	2
 268              	.L17:
 269 002c 00000000 		.word	.LANCHOR0
 270 0030 3C000000 		.word	.LC7
 271              		.cfi_endproc
 272              	.LFE37:
 273              		.size	OutputStats, .-OutputStats
 274              		.global	__aeabi_idivmod
 275              		.section	.text.main,"ax",%progbits
 276              		.align	2
 277              		.global	main
 278              		.code	16
 279              		.thumb_func
 280              		.type	main, %function
ARM GAS  C:\Users\adm\AppData\Local\Temp\ccC6DlY0.s 			page 8


 281              	main:
 282              	.LFB39:
  83:main.c        **** 
  84:main.c        **** int main(void)
  85:main.c        **** {
 283              		.loc 1 85 0
 284              		.cfi_startproc
 285              		@ args = 0, pretend = 0, frame = 72
 286              		@ frame_needed = 0, uses_anonymous_args = 0
 287 0000 F0B5     		push	{r4, r5, r6, r7, lr}
 288              		.cfi_def_cfa_offset 20
 289              		.cfi_offset 4, -20
 290              		.cfi_offset 5, -16
 291              		.cfi_offset 6, -12
 292              		.cfi_offset 7, -8
 293              		.cfi_offset 14, -4
 294 0002 95B0     		sub	sp, sp, #84
 295              		.cfi_def_cfa_offset 104
 296              	.LBB7:
 297              	.LBB8:
 298              		.file 2 "Generated_Source\\PSoC4/cmsis_gcc.h"
   1:Generated_Source\PSoC4/cmsis_gcc.h **** /**************************************************************************//**
   2:Generated_Source\PSoC4/cmsis_gcc.h ****  * @file     cmsis_gcc.h
   3:Generated_Source\PSoC4/cmsis_gcc.h ****  * @brief    CMSIS Cortex-M Core Function/Instruction Header File
   4:Generated_Source\PSoC4/cmsis_gcc.h ****  * @version  V5.00
   5:Generated_Source\PSoC4/cmsis_gcc.h ****  * @date     28. October 2016
   6:Generated_Source\PSoC4/cmsis_gcc.h ****  ******************************************************************************/
   7:Generated_Source\PSoC4/cmsis_gcc.h **** /*
   8:Generated_Source\PSoC4/cmsis_gcc.h ****  * Copyright (c) 2009-2016 ARM Limited. All rights reserved.
   9:Generated_Source\PSoC4/cmsis_gcc.h ****  *
  10:Generated_Source\PSoC4/cmsis_gcc.h ****  * SPDX-License-Identifier: Apache-2.0
  11:Generated_Source\PSoC4/cmsis_gcc.h ****  *
  12:Generated_Source\PSoC4/cmsis_gcc.h ****  * Licensed under the Apache License, Version 2.0 (the License); you may
  13:Generated_Source\PSoC4/cmsis_gcc.h ****  * not use this file except in compliance with the License.
  14:Generated_Source\PSoC4/cmsis_gcc.h ****  * You may obtain a copy of the License at
  15:Generated_Source\PSoC4/cmsis_gcc.h ****  *
  16:Generated_Source\PSoC4/cmsis_gcc.h ****  * http://www.apache.org/licenses/LICENSE-2.0
  17:Generated_Source\PSoC4/cmsis_gcc.h ****  *
  18:Generated_Source\PSoC4/cmsis_gcc.h ****  * Unless required by applicable law or agreed to in writing, software
  19:Generated_Source\PSoC4/cmsis_gcc.h ****  * distributed under the License is distributed on an AS IS BASIS, WITHOUT
  20:Generated_Source\PSoC4/cmsis_gcc.h ****  * WARRANTIES OR CONDITIONS OF ANY KIND, either express or implied.
  21:Generated_Source\PSoC4/cmsis_gcc.h ****  * See the License for the specific language governing permissions and
  22:Generated_Source\PSoC4/cmsis_gcc.h ****  * limitations under the License.
  23:Generated_Source\PSoC4/cmsis_gcc.h ****  */
  24:Generated_Source\PSoC4/cmsis_gcc.h **** 
  25:Generated_Source\PSoC4/cmsis_gcc.h **** #ifndef __CMSIS_GCC_H
  26:Generated_Source\PSoC4/cmsis_gcc.h **** #define __CMSIS_GCC_H
  27:Generated_Source\PSoC4/cmsis_gcc.h **** 
  28:Generated_Source\PSoC4/cmsis_gcc.h **** /* ignore some GCC warnings */
  29:Generated_Source\PSoC4/cmsis_gcc.h **** #pragma GCC diagnostic push
  30:Generated_Source\PSoC4/cmsis_gcc.h **** #pragma GCC diagnostic ignored "-Wsign-conversion"
  31:Generated_Source\PSoC4/cmsis_gcc.h **** #pragma GCC diagnostic ignored "-Wconversion"
  32:Generated_Source\PSoC4/cmsis_gcc.h **** #pragma GCC diagnostic ignored "-Wunused-parameter"
  33:Generated_Source\PSoC4/cmsis_gcc.h **** 
  34:Generated_Source\PSoC4/cmsis_gcc.h **** /* CMSIS compiler specific defines */
  35:Generated_Source\PSoC4/cmsis_gcc.h **** #ifndef   __ASM
  36:Generated_Source\PSoC4/cmsis_gcc.h ****   #define __ASM                     __asm
ARM GAS  C:\Users\adm\AppData\Local\Temp\ccC6DlY0.s 			page 9


  37:Generated_Source\PSoC4/cmsis_gcc.h **** #endif
  38:Generated_Source\PSoC4/cmsis_gcc.h **** #ifndef   __INLINE
  39:Generated_Source\PSoC4/cmsis_gcc.h ****   #define __INLINE                  inline
  40:Generated_Source\PSoC4/cmsis_gcc.h **** #endif
  41:Generated_Source\PSoC4/cmsis_gcc.h **** #ifndef   __STATIC_INLINE
  42:Generated_Source\PSoC4/cmsis_gcc.h ****   #define __STATIC_INLINE           static inline
  43:Generated_Source\PSoC4/cmsis_gcc.h **** #endif
  44:Generated_Source\PSoC4/cmsis_gcc.h **** #ifndef   __NO_RETURN
  45:Generated_Source\PSoC4/cmsis_gcc.h ****   #define __NO_RETURN               __attribute__((noreturn))
  46:Generated_Source\PSoC4/cmsis_gcc.h **** #endif
  47:Generated_Source\PSoC4/cmsis_gcc.h **** #ifndef   __USED
  48:Generated_Source\PSoC4/cmsis_gcc.h ****   #define __USED                    __attribute__((used))
  49:Generated_Source\PSoC4/cmsis_gcc.h **** #endif
  50:Generated_Source\PSoC4/cmsis_gcc.h **** #ifndef   _WEAK
  51:Generated_Source\PSoC4/cmsis_gcc.h ****   #define __WEAK                    __attribute__((weak))
  52:Generated_Source\PSoC4/cmsis_gcc.h **** #endif
  53:Generated_Source\PSoC4/cmsis_gcc.h **** #ifndef   __UNALIGNED_UINT32
  54:Generated_Source\PSoC4/cmsis_gcc.h ****   struct __attribute__((packed)) T_UINT32 { uint32_t v; };
  55:Generated_Source\PSoC4/cmsis_gcc.h ****   #define __UNALIGNED_UINT32(x)     (((struct T_UINT32 *)(x))->v)
  56:Generated_Source\PSoC4/cmsis_gcc.h **** #endif
  57:Generated_Source\PSoC4/cmsis_gcc.h **** #ifndef   __ALIGNED
  58:Generated_Source\PSoC4/cmsis_gcc.h ****   #define __ALIGNED(x)              __attribute__((aligned(x)))
  59:Generated_Source\PSoC4/cmsis_gcc.h **** #endif
  60:Generated_Source\PSoC4/cmsis_gcc.h **** #ifndef   __PACKED
  61:Generated_Source\PSoC4/cmsis_gcc.h ****   #define __PACKED                  __attribute__((packed, aligned(1)))
  62:Generated_Source\PSoC4/cmsis_gcc.h **** #endif
  63:Generated_Source\PSoC4/cmsis_gcc.h **** 
  64:Generated_Source\PSoC4/cmsis_gcc.h **** 
  65:Generated_Source\PSoC4/cmsis_gcc.h **** /* ###########################  Core Function Access  ########################### */
  66:Generated_Source\PSoC4/cmsis_gcc.h **** /** \ingroup  CMSIS_Core_FunctionInterface
  67:Generated_Source\PSoC4/cmsis_gcc.h ****     \defgroup CMSIS_Core_RegAccFunctions CMSIS Core Register Access Functions
  68:Generated_Source\PSoC4/cmsis_gcc.h ****   @{
  69:Generated_Source\PSoC4/cmsis_gcc.h ****  */
  70:Generated_Source\PSoC4/cmsis_gcc.h **** 
  71:Generated_Source\PSoC4/cmsis_gcc.h **** /**
  72:Generated_Source\PSoC4/cmsis_gcc.h ****   \brief   Enable IRQ Interrupts
  73:Generated_Source\PSoC4/cmsis_gcc.h ****   \details Enables IRQ interrupts by clearing the I-bit in the CPSR.
  74:Generated_Source\PSoC4/cmsis_gcc.h ****            Can only be executed in Privileged modes.
  75:Generated_Source\PSoC4/cmsis_gcc.h ****  */
  76:Generated_Source\PSoC4/cmsis_gcc.h **** __attribute__((always_inline)) __STATIC_INLINE void __enable_irq(void)
  77:Generated_Source\PSoC4/cmsis_gcc.h **** {
  78:Generated_Source\PSoC4/cmsis_gcc.h ****   __ASM volatile ("cpsie i" : : : "memory");
 299              		.loc 2 78 0
 300              		.syntax divided
 301              	@ 78 "Generated_Source\PSoC4/cmsis_gcc.h" 1
 302 0004 62B6     		cpsie i
 303              	@ 0 "" 2
 304              		.thumb
 305              		.syntax unified
 306              	.LBE8:
 307              	.LBE7:
  86:main.c        ****     __enable_irq();
  87:main.c        **** 
  88:main.c        ****     UART_Init();
 308              		.loc 1 88 0
 309 0006 FFF7FEFF 		bl	UART_Init
 310              	.LVL21:
ARM GAS  C:\Users\adm\AppData\Local\Temp\ccC6DlY0.s 			page 10


  89:main.c        ****     UART_Start();
 311              		.loc 1 89 0
 312 000a FFF7FEFF 		bl	UART_Start
 313              	.LVL22:
  90:main.c        ****     CapSense_Start();
 314              		.loc 1 90 0
 315 000e FFF7FEFF 		bl	CapSense_Start
 316              	.LVL23:
  91:main.c        **** 
  92:main.c        ****     // Initial CapSense scan
  93:main.c        ****     CapSense_ScanAllWidgets();
 317              		.loc 1 93 0
 318 0012 FFF7FEFF 		bl	CapSense_ScanAllWidgets
 319              	.LVL24:
 320              	.L20:
  94:main.c        ****     while (CapSense_IsBusy());
 321              		.loc 1 94 0 discriminator 1
 322 0016 FFF7FEFF 		bl	CapSense_IsBusy
 323              	.LVL25:
 324 001a 0028     		cmp	r0, #0
 325 001c FBD1     		bne	.L20
  95:main.c        ****     CapSense_ProcessAllWidgets();
 326              		.loc 1 95 0
 327 001e FFF7FEFF 		bl	CapSense_ProcessAllWidgets
 328              	.LVL26:
  96:main.c        **** 
  97:main.c        ****     // Start User Button interrupt
  98:main.c        ****     User_button_isr_StartEx(UserButtonISR);
 329              		.loc 1 98 0
 330 0022 9648     		ldr	r0, .L54
 331 0024 FFF7FEFF 		bl	User_button_isr_StartEx
 332              	.LVL27:
  99:main.c        **** 
 100:main.c        ****     LED_User_status_Write(1);
 333              		.loc 1 100 0
 334 0028 0120     		movs	r0, #1
 335 002a FFF7FEFF 		bl	LED_User_status_Write
 336              	.LVL28:
 101:main.c        ****     UART_UartPutString("Game Ready. Press User Button (SW2) to Start.\r\n");
 337              		.loc 1 101 0
 338 002e 9448     		ldr	r0, .L54+4
 339 0030 FFF7FEFF 		bl	UART_UartPutString
 340              	.LVL29:
 341              	.L47:
 102:main.c        **** 
 103:main.c        ****     for (;;)
 104:main.c        ****     {
 105:main.c        ****         if (resetRequested)
 342              		.loc 1 105 0
 343 0034 934B     		ldr	r3, .L54+8
 344 0036 1B78     		ldrb	r3, [r3]
 345 0038 002B     		cmp	r3, #0
 346 003a 00D1     		bne	.LCB244
 347 003c 0EE1     		b	.L21	@long jump
 348              	.LCB244:
 106:main.c        ****         {
 107:main.c        ****             CyDelay(50); // Debounce
ARM GAS  C:\Users\adm\AppData\Local\Temp\ccC6DlY0.s 			page 11


 349              		.loc 1 107 0
 350 003e 3220     		movs	r0, #50
 351 0040 FFF7FEFF 		bl	CyDelay
 352              	.LVL30:
 108:main.c        ****             if (User_button_pin_Read() == 0)
 353              		.loc 1 108 0
 354 0044 FFF7FEFF 		bl	User_button_pin_Read
 355              	.LVL31:
 356 0048 0028     		cmp	r0, #0
 357 004a 00D0     		beq	.LCB251
 358 004c 06E1     		b	.L21	@long jump
 359              	.LCB251:
 360              	.L22:
 109:main.c        ****             {
 110:main.c        ****                 while (User_button_pin_Read() == 0); // Wait for release
 361              		.loc 1 110 0 discriminator 1
 362 004e FFF7FEFF 		bl	User_button_pin_Read
 363              	.LVL32:
 364 0052 0028     		cmp	r0, #0
 365 0054 FBD0     		beq	.L22
 111:main.c        ****                 CyDelay(50);
 366              		.loc 1 111 0
 367 0056 3220     		movs	r0, #50
 368 0058 FFF7FEFF 		bl	CyDelay
 369              	.LVL33:
 112:main.c        **** 
 113:main.c        ****                 lastActivityTime = CySysTickGetValue();
 370              		.loc 1 113 0
 371 005c FFF7FEFF 		bl	CySysTickGetValue
 372              	.LVL34:
 373 0060 884C     		ldr	r4, .L54+8
 374 0062 E060     		str	r0, [r4, #12]
 114:main.c        ****                 srand(CySysWdtGetCount());
 375              		.loc 1 114 0
 376 0064 FFF7FEFF 		bl	CySysWdtGetCount
 377              	.LVL35:
 378 0068 FFF7FEFF 		bl	srand
 379              	.LVL36:
 115:main.c        **** 
 116:main.c        ****                 UART_UartPutString("Game Started\r\n");
 380              		.loc 1 116 0
 381 006c 8648     		ldr	r0, .L54+12
 382 006e FFF7FEFF 		bl	UART_UartPutString
 383              	.LVL37:
 117:main.c        ****                 LED_User_status_Write(1);
 384              		.loc 1 117 0
 385 0072 0120     		movs	r0, #1
 386 0074 FFF7FEFF 		bl	LED_User_status_Write
 387              	.LVL38:
 118:main.c        ****                 roundCount = 0;
 388              		.loc 1 118 0
 389 0078 0023     		movs	r3, #0
 390 007a 6360     		str	r3, [r4, #4]
 119:main.c        ****                 totalReactionTime = 0;
 391              		.loc 1 119 0
 392 007c A360     		str	r3, [r4, #8]
 120:main.c        ****                 resetRequested = 0;
ARM GAS  C:\Users\adm\AppData\Local\Temp\ccC6DlY0.s 			page 12


 393              		.loc 1 120 0
 394 007e 2370     		strb	r3, [r4]
 395              	.L46:
 396              	.LBB9:
 121:main.c        **** 
 122:main.c        ****                 while (1) // Game loop
 123:main.c        ****                 {
 124:main.c        ****                     if (resetRequested) {
 397              		.loc 1 124 0
 398 0080 804B     		ldr	r3, .L54+8
 399 0082 1B78     		ldrb	r3, [r3]
 400 0084 002B     		cmp	r3, #0
 401 0086 06D0     		beq	.L23
 125:main.c        ****                         UART_UartPutString("Game Restarted by Button\r\n");
 402              		.loc 1 125 0
 403 0088 8048     		ldr	r0, .L54+16
 404 008a FFF7FEFF 		bl	UART_UartPutString
 405              	.LVL39:
 126:main.c        ****                         resetRequested = 0;
 406              		.loc 1 126 0
 407 008e 0022     		movs	r2, #0
 408 0090 7C4B     		ldr	r3, .L54+8
 409 0092 1A70     		strb	r2, [r3]
 127:main.c        ****                         break;
 410              		.loc 1 127 0
 411 0094 E2E0     		b	.L21
 412              	.L23:
 128:main.c        ****                     }
 129:main.c        **** 
 130:main.c        ****                     // Idle timeout check
 131:main.c        ****                     if ((CySysTickGetValue() - lastActivityTime) / 1000 > IDLE_TIMEOUT_MS) {
 413              		.loc 1 131 0
 414 0096 FFF7FEFF 		bl	CySysTickGetValue
 415              	.LVL40:
 416 009a 7A4B     		ldr	r3, .L54+8
 417 009c DB68     		ldr	r3, [r3, #12]
 418 009e C01A     		subs	r0, r0, r3
 419 00a0 7B4B     		ldr	r3, .L54+20
 420 00a2 9842     		cmp	r0, r3
 421 00a4 06D9     		bls	.L24
 132:main.c        ****                         EnterLowPowerMode();
 422              		.loc 1 132 0
 423 00a6 FFF7FEFF 		bl	EnterLowPowerMode
 424              	.LVL41:
 133:main.c        ****                         lastActivityTime = CySysTickGetValue();
 425              		.loc 1 133 0
 426 00aa FFF7FEFF 		bl	CySysTickGetValue
 427              	.LVL42:
 428 00ae 754B     		ldr	r3, .L54+8
 429 00b0 D860     		str	r0, [r3, #12]
 134:main.c        ****                         break;
 430              		.loc 1 134 0
 431 00b2 D3E0     		b	.L21
 432              	.L24:
 135:main.c        ****                     }
 136:main.c        **** 
 137:main.c        ****                 repeat_round:
ARM GAS  C:\Users\adm\AppData\Local\Temp\ccC6DlY0.s 			page 13


 138:main.c        **** 
 139:main.c        ****                     TurnOffAllLEDs();
 433              		.loc 1 139 0
 434 00b4 FFF7FEFF 		bl	TurnOffAllLEDs
 435              	.LVL43:
 140:main.c        **** 
 141:main.c        ****                     // Wait for all buttons to be released
 142:main.c        ****                     uint32_t releaseTimeout = 2000;
 143:main.c        ****                     uint32_t releaseStart = CySysTickGetValue();
 436              		.loc 1 143 0
 437 00b8 FFF7FEFF 		bl	CySysTickGetValue
 438              	.LVL44:
 439 00bc 0400     		movs	r4, r0
 440              	.LVL45:
 144:main.c        ****                     uint8_t allReleased = 0;
 145:main.c        **** 
 146:main.c        ****                     while ((CySysTickGetValue() - releaseStart) < releaseTimeout * 1000) {
 441              		.loc 1 146 0
 442 00be 1DE0     		b	.L26
 443              	.LVL46:
 444              	.L30:
 147:main.c        ****                         if (resetRequested) break;
 445              		.loc 1 147 0
 446 00c0 704B     		ldr	r3, .L54+8
 447 00c2 1B78     		ldrb	r3, [r3]
 448 00c4 002B     		cmp	r3, #0
 449 00c6 21D1     		bne	.L49
 148:main.c        **** 
 149:main.c        ****                         CapSense_ScanAllWidgets();
 450              		.loc 1 149 0
 451 00c8 FFF7FEFF 		bl	CapSense_ScanAllWidgets
 452              	.LVL47:
 453              	.L28:
 150:main.c        ****                         while (CapSense_IsBusy());
 454              		.loc 1 150 0 discriminator 1
 455 00cc FFF7FEFF 		bl	CapSense_IsBusy
 456              	.LVL48:
 457 00d0 0028     		cmp	r0, #0
 458 00d2 FBD1     		bne	.L28
 151:main.c        ****                         CapSense_ProcessAllWidgets();
 459              		.loc 1 151 0
 460 00d4 FFF7FEFF 		bl	CapSense_ProcessAllWidgets
 461              	.LVL49:
 152:main.c        **** 
 153:main.c        ****                         if (!CapSense_IsWidgetActive(CapSense_BUTTON0_WDGT_ID) &&
 462              		.loc 1 153 0
 463 00d8 0020     		movs	r0, #0
 464 00da FFF7FEFF 		bl	CapSense_IsWidgetActive
 465              	.LVL50:
 466 00de 0028     		cmp	r0, #0
 467 00e0 09D1     		bne	.L29
 154:main.c        ****                             !CapSense_IsWidgetActive(CapSense_BUTTON1_WDGT_ID) &&
 468              		.loc 1 154 0 discriminator 1
 469 00e2 0130     		adds	r0, r0, #1
 470 00e4 FFF7FEFF 		bl	CapSense_IsWidgetActive
 471              	.LVL51:
 153:main.c        ****                             !CapSense_IsWidgetActive(CapSense_BUTTON1_WDGT_ID) &&
ARM GAS  C:\Users\adm\AppData\Local\Temp\ccC6DlY0.s 			page 14


 472              		.loc 1 153 0 discriminator 1
 473 00e8 0028     		cmp	r0, #0
 474 00ea 04D1     		bne	.L29
 155:main.c        ****                             !CapSense_IsWidgetActive(CapSense_BUTTON2_WDGT_ID)) {
 475              		.loc 1 155 0
 476 00ec 0230     		adds	r0, r0, #2
 477 00ee FFF7FEFF 		bl	CapSense_IsWidgetActive
 478              	.LVL52:
 154:main.c        ****                             !CapSense_IsWidgetActive(CapSense_BUTTON1_WDGT_ID) &&
 479              		.loc 1 154 0
 480 00f2 0028     		cmp	r0, #0
 481 00f4 0CD0     		beq	.L50
 482              	.L29:
 156:main.c        ****                             allReleased = 1;
 157:main.c        ****                             break;
 158:main.c        ****                         }
 159:main.c        **** 
 160:main.c        ****                         CyDelay(10);
 483              		.loc 1 160 0
 484 00f6 0A20     		movs	r0, #10
 485 00f8 FFF7FEFF 		bl	CyDelay
 486              	.LVL53:
 487              	.L26:
 146:main.c        ****                         if (resetRequested) break;
 488              		.loc 1 146 0
 489 00fc FFF7FEFF 		bl	CySysTickGetValue
 490              	.LVL54:
 491 0100 001B     		subs	r0, r0, r4
 492 0102 644B     		ldr	r3, .L54+24
 493 0104 9842     		cmp	r0, r3
 494 0106 DBD9     		bls	.L30
 144:main.c        **** 
 495              		.loc 1 144 0
 496 0108 0023     		movs	r3, #0
 497 010a 02E0     		b	.L27
 498              	.L49:
 499 010c 0023     		movs	r3, #0
 500 010e 00E0     		b	.L27
 501              	.L50:
 156:main.c        ****                             allReleased = 1;
 502              		.loc 1 156 0
 503 0110 0123     		movs	r3, #1
 504              	.L27:
 505              	.LVL55:
 161:main.c        ****                     }
 162:main.c        **** 
 163:main.c        ****                     if (!allReleased) {
 506              		.loc 1 163 0
 507 0112 002B     		cmp	r3, #0
 508 0114 05D1     		bne	.L31
 164:main.c        ****                         UART_UartPutString("Buttons held too long, skipping round...\r\n");
 509              		.loc 1 164 0
 510 0116 6048     		ldr	r0, .L54+28
 511 0118 FFF7FEFF 		bl	UART_UartPutString
 512              	.LVL56:
 165:main.c        ****                         BlinkUserLED();
 513              		.loc 1 165 0
ARM GAS  C:\Users\adm\AppData\Local\Temp\ccC6DlY0.s 			page 15


 514 011c FFF7FEFF 		bl	BlinkUserLED
 515              	.LVL57:
 166:main.c        ****                         goto repeat_round;
 516              		.loc 1 166 0
 517 0120 C8E7     		b	.L24
 518              	.LVL58:
 519              	.L31:
 167:main.c        ****                     }
 168:main.c        **** 
 169:main.c        ****                     CyDelay(500);
 520              		.loc 1 169 0
 521 0122 FA20     		movs	r0, #250
 522 0124 4000     		lsls	r0, r0, #1
 523 0126 FFF7FEFF 		bl	CyDelay
 524              	.LVL59:
 170:main.c        ****                     lastActivityTime = CySysTickGetValue();
 525              		.loc 1 170 0
 526 012a FFF7FEFF 		bl	CySysTickGetValue
 527              	.LVL60:
 528 012e 554B     		ldr	r3, .L54+8
 529 0130 D860     		str	r0, [r3, #12]
 171:main.c        **** 
 172:main.c        ****                     // Select random target
 173:main.c        ****                     uint8_t target = rand() % 3;
 530              		.loc 1 173 0
 531 0132 FFF7FEFF 		bl	rand
 532              	.LVL61:
 533 0136 0321     		movs	r1, #3
 534 0138 FFF7FEFF 		bl	__aeabi_idivmod
 535              	.LVL62:
 536 013c CFB2     		uxtb	r7, r1
 537              	.LVL63:
 538 013e FF26     		movs	r6, #255
 539 0140 0E40     		ands	r6, r1
 174:main.c        **** 
 175:main.c        ****                     switch (target)
 540              		.loc 1 175 0
 541 0142 012E     		cmp	r6, #1
 542 0144 07D0     		beq	.L33
 543 0146 022E     		cmp	r6, #2
 544 0148 09D0     		beq	.L34
 545 014a 002E     		cmp	r6, #0
 546 014c 0AD1     		bne	.L32
 176:main.c        ****                     {
 177:main.c        ****                         case 0: LED_CapSense_Button_0_Write(0); break;
 547              		.loc 1 177 0
 548 014e 0020     		movs	r0, #0
 549 0150 FFF7FEFF 		bl	LED_CapSense_Button_0_Write
 550              	.LVL64:
 551 0154 06E0     		b	.L32
 552              	.L33:
 178:main.c        ****                         case 1: LED_CapSense_Button_1_Write(0); break;
 553              		.loc 1 178 0
 554 0156 0020     		movs	r0, #0
 555 0158 FFF7FEFF 		bl	LED_CapSense_Button_1_Write
 556              	.LVL65:
 557 015c 02E0     		b	.L32
ARM GAS  C:\Users\adm\AppData\Local\Temp\ccC6DlY0.s 			page 16


 558              	.L34:
 179:main.c        ****                         case 2: LED_CapSense_Button_2_Write(0); break;
 559              		.loc 1 179 0
 560 015e 0020     		movs	r0, #0
 561 0160 FFF7FEFF 		bl	LED_CapSense_Button_2_Write
 562              	.LVL66:
 563              	.L32:
 180:main.c        ****                     }
 181:main.c        **** 
 182:main.c        ****                     uint32_t startTime = CySysTickGetValue();
 564              		.loc 1 182 0
 565 0164 FFF7FEFF 		bl	CySysTickGetValue
 566              	.LVL67:
 567 0168 0390     		str	r0, [sp, #12]
 568              	.LVL68:
 183:main.c        ****                     uint32_t timeoutStart = CySysTickGetValue();
 569              		.loc 1 183 0
 570 016a FFF7FEFF 		bl	CySysTickGetValue
 571              	.LVL69:
 572 016e 0500     		movs	r5, r0
 573              	.LVL70:
 184:main.c        ****                     uint8_t hit = 0;
 185:main.c        **** 
 186:main.c        ****                     while ((CySysTickGetValue() - timeoutStart) < IDLE_MS * 1000)
 574              		.loc 1 186 0
 575 0170 5CE0     		b	.L36
 576              	.LVL71:
 577              	.L44:
 578              	.LBB10:
 187:main.c        ****                     {
 188:main.c        ****                         if (resetRequested) {
 579              		.loc 1 188 0
 580 0172 444B     		ldr	r3, .L54+8
 581 0174 1B78     		ldrb	r3, [r3]
 582 0176 002B     		cmp	r3, #0
 583 0178 07D0     		beq	.L37
 189:main.c        ****                             UART_UartPutString("Game Restarted by Button\r\n");
 584              		.loc 1 189 0
 585 017a 4448     		ldr	r0, .L54+16
 586 017c FFF7FEFF 		bl	UART_UartPutString
 587              	.LVL72:
 190:main.c        ****                             resetRequested = 0;
 588              		.loc 1 190 0
 589 0180 0022     		movs	r2, #0
 590 0182 404B     		ldr	r3, .L54+8
 591 0184 1A70     		strb	r2, [r3]
 191:main.c        ****                             hit = 0;
 592              		.loc 1 191 0
 593 0186 0024     		movs	r4, #0
 192:main.c        ****                             goto end_of_round;
 594              		.loc 1 192 0
 595 0188 57E0     		b	.L38
 596              	.L37:
 193:main.c        ****                         }
 194:main.c        **** 
 195:main.c        ****                         CapSense_ScanAllWidgets();
 597              		.loc 1 195 0
ARM GAS  C:\Users\adm\AppData\Local\Temp\ccC6DlY0.s 			page 17


 598 018a FFF7FEFF 		bl	CapSense_ScanAllWidgets
 599              	.LVL73:
 600              	.L39:
 196:main.c        ****                         while (CapSense_IsBusy());
 601              		.loc 1 196 0 discriminator 1
 602 018e FFF7FEFF 		bl	CapSense_IsBusy
 603              	.LVL74:
 604 0192 0028     		cmp	r0, #0
 605 0194 FBD1     		bne	.L39
 197:main.c        ****                         CapSense_ProcessAllWidgets();
 606              		.loc 1 197 0
 607 0196 FFF7FEFF 		bl	CapSense_ProcessAllWidgets
 608              	.LVL75:
 198:main.c        **** 
 199:main.c        ****                         uint8_t pressed = 255;
 200:main.c        **** 
 201:main.c        ****                         if (CapSense_IsWidgetActive(CapSense_BUTTON0_WDGT_ID)) {
 609              		.loc 1 201 0
 610 019a 0020     		movs	r0, #0
 611 019c FFF7FEFF 		bl	CapSense_IsWidgetActive
 612              	.LVL76:
 613 01a0 0028     		cmp	r0, #0
 614 01a2 0BD1     		bne	.L51
 202:main.c        ****                             pressed = 0;
 203:main.c        ****                         }
 204:main.c        ****                         else if (CapSense_IsWidgetActive(CapSense_BUTTON1_WDGT_ID)) {
 615              		.loc 1 204 0
 616 01a4 0130     		adds	r0, r0, #1
 617 01a6 FFF7FEFF 		bl	CapSense_IsWidgetActive
 618              	.LVL77:
 619 01aa 0028     		cmp	r0, #0
 620 01ac 08D1     		bne	.L52
 205:main.c        ****                             pressed = 1;
 206:main.c        ****                         }
 207:main.c        ****                         else if (CapSense_IsWidgetActive(CapSense_BUTTON2_WDGT_ID)) {
 621              		.loc 1 207 0
 622 01ae 0230     		adds	r0, r0, #2
 623 01b0 FFF7FEFF 		bl	CapSense_IsWidgetActive
 624              	.LVL78:
 625 01b4 0028     		cmp	r0, #0
 626 01b6 05D1     		bne	.L53
 199:main.c        **** 
 627              		.loc 1 199 0
 628 01b8 FF24     		movs	r4, #255
 629 01ba 04E0     		b	.L40
 630              	.L51:
 202:main.c        ****                             pressed = 0;
 631              		.loc 1 202 0
 632 01bc 0024     		movs	r4, #0
 633 01be 02E0     		b	.L40
 634              	.L52:
 205:main.c        ****                             pressed = 1;
 635              		.loc 1 205 0
 636 01c0 0124     		movs	r4, #1
 637 01c2 00E0     		b	.L40
 638              	.L53:
 208:main.c        ****                             pressed = 2;
ARM GAS  C:\Users\adm\AppData\Local\Temp\ccC6DlY0.s 			page 18


 639              		.loc 1 208 0
 640 01c4 0224     		movs	r4, #2
 641              	.L40:
 642              	.LVL79:
 209:main.c        ****                         }
 210:main.c        **** 
 211:main.c        ****                         if (pressed != 255)
 643              		.loc 1 211 0
 644 01c6 FF2C     		cmp	r4, #255
 645 01c8 2DD0     		beq	.L41
 646              	.LBB11:
 212:main.c        ****                         {
 213:main.c        ****                             uint32_t reactionTime = (CySysTickGetValue() - startTime) / 1000;
 647              		.loc 1 213 0
 648 01ca FFF7FEFF 		bl	CySysTickGetValue
 649              	.LVL80:
 650 01ce 039B     		ldr	r3, [sp, #12]
 651 01d0 C01A     		subs	r0, r0, r3
 652 01d2 FA21     		movs	r1, #250
 653 01d4 8900     		lsls	r1, r1, #2
 654 01d6 FFF7FEFF 		bl	__aeabi_uidiv
 655              	.LVL81:
 656 01da 0500     		movs	r5, r0
 657              	.LVL82:
 214:main.c        **** 
 215:main.c        ****                             char msg[64];
 216:main.c        ****                             sprintf(msg, "Pressed: %d, Expected: %d, Time: %lu ms\r\n",
 658              		.loc 1 216 0
 659 01dc 0090     		str	r0, [sp]
 660 01de 3300     		movs	r3, r6
 661 01e0 2200     		movs	r2, r4
 662 01e2 2E49     		ldr	r1, .L54+32
 663 01e4 04A8     		add	r0, sp, #16
 664              	.LVL83:
 665 01e6 FFF7FEFF 		bl	sprintf
 666              	.LVL84:
 217:main.c        ****                                 pressed, target, (unsigned long)reactionTime);
 218:main.c        ****                             UART_UartPutString(msg);
 667              		.loc 1 218 0
 668 01ea 04A8     		add	r0, sp, #16
 669 01ec FFF7FEFF 		bl	UART_UartPutString
 670              	.LVL85:
 219:main.c        **** 
 220:main.c        ****                             if (pressed == target && reactionTime <= TIMEOUT_MS)
 671              		.loc 1 220 0
 672 01f0 BC42     		cmp	r4, r7
 673 01f2 0BD1     		bne	.L42
 674              		.loc 1 220 0 is_stmt 0 discriminator 1
 675 01f4 FA23     		movs	r3, #250
 676 01f6 9B00     		lsls	r3, r3, #2
 677 01f8 9D42     		cmp	r5, r3
 678 01fa 07D8     		bhi	.L42
 221:main.c        ****                             {
 222:main.c        ****                                 roundCount++;
 679              		.loc 1 222 0 is_stmt 1
 680 01fc 214B     		ldr	r3, .L54+8
 681 01fe 5A68     		ldr	r2, [r3, #4]
ARM GAS  C:\Users\adm\AppData\Local\Temp\ccC6DlY0.s 			page 19


 682 0200 0132     		adds	r2, r2, #1
 683 0202 5A60     		str	r2, [r3, #4]
 223:main.c        ****                                 totalReactionTime += reactionTime;
 684              		.loc 1 223 0
 685 0204 9A68     		ldr	r2, [r3, #8]
 686 0206 5419     		adds	r4, r2, r5
 687              	.LVL86:
 688 0208 9C60     		str	r4, [r3, #8]
 689 020a 06E0     		b	.L43
 690              	.LVL87:
 691              	.L42:
 224:main.c        ****                             }
 225:main.c        ****                             else
 226:main.c        ****                             {
 227:main.c        ****                                 UART_UartPutString("Incorrect or Late Press!\r\n");
 692              		.loc 1 227 0
 693 020c 2448     		ldr	r0, .L54+36
 694 020e FFF7FEFF 		bl	UART_UartPutString
 695              	.LVL88:
 228:main.c        ****                                 BlinkUserLED();
 696              		.loc 1 228 0
 697 0212 FFF7FEFF 		bl	BlinkUserLED
 698              	.LVL89:
 229:main.c        ****                                 OutputStats();
 699              		.loc 1 229 0
 700 0216 FFF7FEFF 		bl	OutputStats
 701              	.LVL90:
 702              	.L43:
 230:main.c        ****                             }
 231:main.c        **** 
 232:main.c        ****                             hit = 1;
 233:main.c        ****                             lastActivityTime = CySysTickGetValue(); // activity
 703              		.loc 1 233 0
 704 021a FFF7FEFF 		bl	CySysTickGetValue
 705              	.LVL91:
 706 021e 194B     		ldr	r3, .L54+8
 707 0220 D860     		str	r0, [r3, #12]
 232:main.c        ****                             lastActivityTime = CySysTickGetValue(); // activity
 708              		.loc 1 232 0
 709 0222 0124     		movs	r4, #1
 710 0224 09E0     		b	.L38
 711              	.LVL92:
 712              	.L41:
 713              	.LBE11:
 234:main.c        ****                             break;
 235:main.c        ****                         }
 236:main.c        **** 
 237:main.c        ****                         CyDelay(10);
 714              		.loc 1 237 0
 715 0226 0A20     		movs	r0, #10
 716 0228 FFF7FEFF 		bl	CyDelay
 717              	.LVL93:
 718              	.L36:
 719              	.LBE10:
 186:main.c        ****                     {
 720              		.loc 1 186 0
 721 022c FFF7FEFF 		bl	CySysTickGetValue
ARM GAS  C:\Users\adm\AppData\Local\Temp\ccC6DlY0.s 			page 20


 722              	.LVL94:
 723 0230 401B     		subs	r0, r0, r5
 724 0232 1C4B     		ldr	r3, .L54+40
 725 0234 9842     		cmp	r0, r3
 726 0236 9CD9     		bls	.L44
 184:main.c        **** 
 727              		.loc 1 184 0
 728 0238 0024     		movs	r4, #0
 729              	.LVL95:
 730              	.L38:
 238:main.c        ****                     }
 239:main.c        **** 
 240:main.c        ****                 end_of_round:
 241:main.c        ****                     TurnOffAllLEDs();
 731              		.loc 1 241 0
 732 023a FFF7FEFF 		bl	TurnOffAllLEDs
 733              	.LVL96:
 242:main.c        **** 
 243:main.c        ****                     if (!hit)
 734              		.loc 1 243 0
 735 023e 002C     		cmp	r4, #0
 736 0240 07D1     		bne	.L45
 244:main.c        ****                     {
 245:main.c        ****                         UART_UartPutString("Miss or Timeout! Repeating round...\r\n");
 737              		.loc 1 245 0
 738 0242 1948     		ldr	r0, .L54+44
 739 0244 FFF7FEFF 		bl	UART_UartPutString
 740              	.LVL97:
 246:main.c        ****                         BlinkUserLED();
 741              		.loc 1 246 0
 742 0248 FFF7FEFF 		bl	BlinkUserLED
 743              	.LVL98:
 247:main.c        ****                         OutputStats();
 744              		.loc 1 247 0
 745 024c FFF7FEFF 		bl	OutputStats
 746              	.LVL99:
 747              	.L25:
 248:main.c        ****                         goto repeat_round;
 748              		.loc 1 248 0
 749 0250 30E7     		b	.L24
 750              	.L45:
 249:main.c        ****                     }
 250:main.c        **** 
 251:main.c        ****                     CyDelay(500);
 751              		.loc 1 251 0
 752 0252 FA20     		movs	r0, #250
 753 0254 4000     		lsls	r0, r0, #1
 754 0256 FFF7FEFF 		bl	CyDelay
 755              	.LVL100:
 756              	.LBE9:
 252:main.c        ****                 }
 757              		.loc 1 252 0
 758 025a 11E7     		b	.L46
 759              	.LVL101:
 760              	.L21:
 253:main.c        ****             }
 254:main.c        ****         }
ARM GAS  C:\Users\adm\AppData\Local\Temp\ccC6DlY0.s 			page 21


 255:main.c        **** 
 256:main.c        ****         // Fallback idle timeout
 257:main.c        ****         if ((CySysTickGetValue() - lastActivityTime) / 1000 > IDLE_TIMEOUT_MS) {
 761              		.loc 1 257 0
 762 025c FFF7FEFF 		bl	CySysTickGetValue
 763              	.LVL102:
 764 0260 084B     		ldr	r3, .L54+8
 765 0262 DB68     		ldr	r3, [r3, #12]
 766 0264 C01A     		subs	r0, r0, r3
 767 0266 0A4B     		ldr	r3, .L54+20
 768 0268 9842     		cmp	r0, r3
 769 026a 00D8     		bhi	.LCB650
 770 026c E2E6     		b	.L47	@long jump
 771              	.LCB650:
 258:main.c        ****             EnterLowPowerMode();
 772              		.loc 1 258 0
 773 026e FFF7FEFF 		bl	EnterLowPowerMode
 774              	.LVL103:
 259:main.c        ****             lastActivityTime = CySysTickGetValue();
 775              		.loc 1 259 0
 776 0272 FFF7FEFF 		bl	CySysTickGetValue
 777              	.LVL104:
 778 0276 034B     		ldr	r3, .L54+8
 779 0278 D860     		str	r0, [r3, #12]
 780 027a DBE6     		b	.L47
 781              	.L55:
 782              		.align	2
 783              	.L54:
 784 027c 00000000 		.word	UserButtonISR
 785 0280 5C000000 		.word	.LC10
 786 0284 00000000 		.word	.LANCHOR0
 787 0288 8C000000 		.word	.LC13
 788 028c 9C000000 		.word	.LC15
 789 0290 274F4C00 		.word	5000999
 790 0294 7F841E00 		.word	1999999
 791 0298 B8000000 		.word	.LC17
 792 029c E4000000 		.word	.LC19
 793 02a0 10010000 		.word	.LC21
 794 02a4 BFC62D00 		.word	2999999
 795 02a8 2C010000 		.word	.LC23
 796              		.cfi_endproc
 797              	.LFE39:
 798              		.size	main, .-main
 799              		.global	totalReactionTime
 800              		.global	roundCount
 801              		.global	resetRequested
 802              		.global	resumeTimeoutStart
 803              		.global	resumeStartTime
 804              		.global	resumeTarget
 805              		.global	resumeFromSleep
 806              		.global	inLowPowerMode
 807              		.global	lastActivityTime
 808              		.data
 809              		.type	resumeTarget, %object
 810              		.size	resumeTarget, 1
 811              	resumeTarget:
 812 0000 FF       		.byte	-1
ARM GAS  C:\Users\adm\AppData\Local\Temp\ccC6DlY0.s 			page 22


 813              		.section	.rodata.str1.4,"aMS",%progbits,1
 814              		.align	2
 815              	.LC2:
 816 0000 456E7465 		.ascii	"Entering Low Power Mode...\015\012\000"
 816      72696E67 
 816      204C6F77 
 816      20506F77 
 816      6572204D 
 817 001d 000000   		.space	3
 818              	.LC4:
 819 0020 576F6B65 		.ascii	"Woke from Low Power Mode\015\012\000"
 819      2066726F 
 819      6D204C6F 
 819      7720506F 
 819      77657220 
 820 003b 00       		.space	1
 821              	.LC7:
 822 003c 526F756E 		.ascii	"Rounds: %lu, Avg Time: %lu ms\015\012\000"
 822      64733A20 
 822      256C752C 
 822      20417667 
 822      2054696D 
 823              	.LC10:
 824 005c 47616D65 		.ascii	"Game Ready. Press User Button (SW2) to Start.\015\012"
 824      20526561 
 824      64792E20 
 824      50726573 
 824      73205573 
 825 008b 00       		.ascii	"\000"
 826              	.LC13:
 827 008c 47616D65 		.ascii	"Game Started\015\012\000"
 827      20537461 
 827      72746564 
 827      0D0A00
 828 009b 00       		.space	1
 829              	.LC15:
 830 009c 47616D65 		.ascii	"Game Restarted by Button\015\012\000"
 830      20526573 
 830      74617274 
 830      65642062 
 830      79204275 
 831 00b7 00       		.space	1
 832              	.LC17:
 833 00b8 42757474 		.ascii	"Buttons held too long, skipping round...\015\012\000"
 833      6F6E7320 
 833      68656C64 
 833      20746F6F 
 833      206C6F6E 
 834 00e3 00       		.space	1
 835              	.LC19:
 836 00e4 50726573 		.ascii	"Pressed: %d, Expected: %d, Time: %lu ms\015\012\000"
 836      7365643A 
 836      2025642C 
 836      20457870 
 836      65637465 
 837 010e 0000     		.space	2
 838              	.LC21:
ARM GAS  C:\Users\adm\AppData\Local\Temp\ccC6DlY0.s 			page 23


 839 0110 496E636F 		.ascii	"Incorrect or Late Press!\015\012\000"
 839      72726563 
 839      74206F72 
 839      204C6174 
 839      65205072 
 840 012b 00       		.space	1
 841              	.LC23:
 842 012c 4D697373 		.ascii	"Miss or Timeout! Repeating round...\015\012\000"
 842      206F7220 
 842      54696D65 
 842      6F757421 
 842      20526570 
 843              		.bss
 844              		.align	2
 845              		.set	.LANCHOR0,. + 0
 846              		.type	resetRequested, %object
 847              		.size	resetRequested, 1
 848              	resetRequested:
 849 0000 00       		.space	1
 850              		.type	inLowPowerMode, %object
 851              		.size	inLowPowerMode, 1
 852              	inLowPowerMode:
 853 0001 00       		.space	1
 854 0002 0000     		.space	2
 855              		.type	roundCount, %object
 856              		.size	roundCount, 4
 857              	roundCount:
 858 0004 00000000 		.space	4
 859              		.type	totalReactionTime, %object
 860              		.size	totalReactionTime, 4
 861              	totalReactionTime:
 862 0008 00000000 		.space	4
 863              		.type	lastActivityTime, %object
 864              		.size	lastActivityTime, 4
 865              	lastActivityTime:
 866 000c 00000000 		.space	4
 867              		.type	resumeTimeoutStart, %object
 868              		.size	resumeTimeoutStart, 4
 869              	resumeTimeoutStart:
 870 0010 00000000 		.space	4
 871              		.type	resumeStartTime, %object
 872              		.size	resumeStartTime, 4
 873              	resumeStartTime:
 874 0014 00000000 		.space	4
 875              		.type	resumeFromSleep, %object
 876              		.size	resumeFromSleep, 1
 877              	resumeFromSleep:
 878 0018 00       		.space	1
 879              		.text
 880              	.Letext0:
 881              		.file 3 "f:\\psoccreator\\psoc creator\\4.4\\psoc creator\\import\\gnu\\arm\\5.4.1\\arm-none-eabi\
 882              		.file 4 "f:\\psoccreator\\psoc creator\\4.4\\psoc creator\\import\\gnu\\arm\\5.4.1\\arm-none-eabi\
 883              		.file 5 "Generated_Source\\PSoC4/cytypes.h"
 884              		.file 6 "Generated_Source\\PSoC4/User_button_pin.h"
 885              		.file 7 "Generated_Source\\PSoC4/LED_CapSense_Button_0.h"
 886              		.file 8 "Generated_Source\\PSoC4/LED_CapSense_Button_1.h"
 887              		.file 9 "Generated_Source\\PSoC4/LED_CapSense_Button_2.h"
ARM GAS  C:\Users\adm\AppData\Local\Temp\ccC6DlY0.s 			page 24


 888              		.file 10 "Generated_Source\\PSoC4/UART.h"
 889              		.file 11 "Generated_Source\\PSoC4/LED_User_status.h"
 890              		.file 12 "Generated_Source\\PSoC4/UART_SPI_UART.h"
 891              		.file 13 "Generated_Source\\PSoC4/CapSense_Sensing.h"
 892              		.file 14 "Generated_Source\\PSoC4/CapSense_Control.h"
 893              		.file 15 "Generated_Source\\PSoC4/CapSense_Structure.h"
 894              		.file 16 "Generated_Source\\PSoC4/cyPm.h"
 895              		.file 17 "Generated_Source\\PSoC4/CyLib.h"
 896              		.file 18 "f:\\psoccreator\\psoc creator\\4.4\\psoc creator\\import\\gnu\\arm\\5.4.1\\arm-none-eabi
 897              		.file 19 "f:\\psoccreator\\psoc creator\\4.4\\psoc creator\\import\\gnu\\arm\\5.4.1\\arm-none-eabi
 898              		.file 20 "Generated_Source\\PSoC4/User_button_isr.h"
 899              		.file 21 "Generated_Source\\PSoC4/CyLFClk.h"